---
triple:          'x86_64-apple-darwin'
binary-path:     '/Users/ppasika/Documents/GitHub/Computer-Graphics/Assignment3_65050605_65051034/main'
relocations:
  - { offsetInCU: 0x3FF, offset: 0x3FF, size: 0x8, addend: 0x0, symName: __ZN3glmeqIfLNS_9qualifierE0EEEbRKNS_3vecILi3ET_XT0_EEES6_, symObjAddr: 0x1850, symBinAddr: 0x100004CB0, symSize: 0x90 }
  - { offsetInCU: 0x44F, offset: 0x44F, size: 0x8, addend: 0x0, symName: __ZN3glmeqIfLNS_9qualifierE0EEEbRKNS_3vecILi2ET_XT0_EEES6_, symObjAddr: 0x18E0, symBinAddr: 0x100004D40, symSize: 0x70 }
  - { offsetInCU: 0xEC30, offset: 0xEC30, size: 0x8, addend: 0x0, symName: __ZNSt3__124__put_character_sequenceB7v160006IcNS_11char_traitsIcEEEERNS_13basic_ostreamIT_T0_EES7_PKS4_m, symObjAddr: 0x32F0, symBinAddr: 0x100006750, symSize: 0x1F0 }
  - { offsetInCU: 0x1368B, offset: 0x1368B, size: 0x8, addend: 0x0, symName: __ZNSt3__1lsB7v160006INS_11char_traitsIcEEEERNS_13basic_ostreamIcT_EES6_PKc, symObjAddr: 0x1330, symBinAddr: 0x100004790, symSize: 0x40 }
  - { offsetInCU: 0x136D1, offset: 0x136D1, size: 0x8, addend: 0x0, symName: __ZNSt3__14endlB7v160006IcNS_11char_traitsIcEEEERNS_13basic_ostreamIT_T0_EES7_, symObjAddr: 0x1390, symBinAddr: 0x1000047F0, symSize: 0x50 }
  - { offsetInCU: 0x13711, offset: 0x13711, size: 0x8, addend: 0x0, symName: __ZNSt3__17getlineB7v160006IcNS_11char_traitsIcEENS_9allocatorIcEEEERNS_13basic_istreamIT_T0_EES9_RNS_12basic_stringIS6_S7_T1_EE, symObjAddr: 0x1400, symBinAddr: 0x100004860, symSize: 0x50 }
  - { offsetInCU: 0x13769, offset: 0x13769, size: 0x8, addend: 0x0, symName: __ZNSt3__1eqB7v160006IcNS_11char_traitsIcEENS_9allocatorIcEEEEbRKNS_12basic_stringIT_T0_T1_EEPKS6_, symObjAddr: 0x1480, symBinAddr: 0x1000048E0, symSize: 0x90 }
  - { offsetInCU: 0x137D0, offset: 0x137D0, size: 0x8, addend: 0x0, symName: __ZNSt3__1neB7v160006IP4FaceEEbRKNS_11__wrap_iterIT_EES7_, symObjAddr: 0x1790, symBinAddr: 0x100004BF0, symSize: 0x30 }
  - { offsetInCU: 0x1381E, offset: 0x1381E, size: 0x8, addend: 0x0, symName: __ZNSt3__1eqB7v160006IP4FaceEEbRKNS_11__wrap_iterIT_EES7_, symObjAddr: 0x1AF0, symBinAddr: 0x100004F50, symSize: 0x40 }
  - { offsetInCU: 0x13861, offset: 0x13861, size: 0x8, addend: 0x0, symName: __ZNSt3__119__debug_db_insert_cB7v160006INS_12basic_stringIcNS_11char_traitsIcEENS_9allocatorIcEEEEEEvPT_, symObjAddr: 0x1C80, symBinAddr: 0x1000050E0, symSize: 0x10 }
  - { offsetInCU: 0x13892, offset: 0x13892, size: 0x8, addend: 0x0, symName: __ZNSt3__112__to_addressB7v160006IKcEEPT_S3_, symObjAddr: 0x1DD0, symBinAddr: 0x100005230, symSize: 0x10 }
  - { offsetInCU: 0x138FA, offset: 0x138FA, size: 0x8, addend: 0x0, symName: __ZNSt3__119__debug_db_insert_cB7v160006INS_6vectorIN3glm3vecILi3EfLNS2_9qualifierE0EEENS_9allocatorIS5_EEEEEEvPT_, symObjAddr: 0x1F80, symBinAddr: 0x1000053E0, symSize: 0x10 }
  - { offsetInCU: 0x1392B, offset: 0x1392B, size: 0x8, addend: 0x0, symName: __ZNSt3__118__debug_db_erase_cB7v160006INS_6vectorIN3glm3vecILi3EfLNS2_9qualifierE0EEENS_9allocatorIS5_EEEEEEvPT_, symObjAddr: 0x2210, symBinAddr: 0x100005670, symSize: 0x10 }
  - { offsetInCU: 0x1395C, offset: 0x1395C, size: 0x8, addend: 0x0, symName: __ZNSt3__112__to_addressB7v160006IN3glm3vecILi3EfLNS1_9qualifierE0EEEEEPT_S6_, symObjAddr: 0x2310, symBinAddr: 0x100005770, symSize: 0x10 }
  - { offsetInCU: 0x13991, offset: 0x13991, size: 0x8, addend: 0x0, symName: __ZNSt3__119__libcpp_deallocateB7v160006EPvmm, symObjAddr: 0x2430, symBinAddr: 0x100005890, symSize: 0x60 }
  - { offsetInCU: 0x139F6, offset: 0x139F6, size: 0x8, addend: 0x0, symName: __ZNSt3__124__is_overaligned_for_newB7v160006Em, symObjAddr: 0x2490, symBinAddr: 0x1000058F0, symSize: 0x20 }
  - { offsetInCU: 0x13A24, offset: 0x13A24, size: 0x8, addend: 0x0, symName: __ZNSt3__127__do_deallocate_handle_sizeB7v160006IJSt11align_val_tEEEvPvmDpT_, symObjAddr: 0x24B0, symBinAddr: 0x100005910, symSize: 0x30 }
  - { offsetInCU: 0x13A77, offset: 0x13A77, size: 0x8, addend: 0x0, symName: __ZNSt3__127__do_deallocate_handle_sizeB7v160006IJEEEvPvmDpT_, symObjAddr: 0x24E0, symBinAddr: 0x100005940, symSize: 0x20 }
  - { offsetInCU: 0x13AB5, offset: 0x13AB5, size: 0x8, addend: 0x0, symName: __ZNSt3__124__libcpp_operator_deleteB7v160006IJPvSt11align_val_tEEEvDpT_, symObjAddr: 0x2500, symBinAddr: 0x100005960, symSize: 0x30 }
  - { offsetInCU: 0x13AFE, offset: 0x13AFE, size: 0x8, addend: 0x0, symName: __ZNSt3__124__libcpp_operator_deleteB7v160006IJPvEEEvDpT_, symObjAddr: 0x2530, symBinAddr: 0x100005990, symSize: 0x20 }
  - { offsetInCU: 0x13B33, offset: 0x13B33, size: 0x8, addend: 0x0, symName: __ZNSt3__119__debug_db_insert_cB7v160006INS_6vectorIN3glm3vecILi2EfLNS2_9qualifierE0EEENS_9allocatorIS5_EEEEEEvPT_, symObjAddr: 0x2660, symBinAddr: 0x100005AC0, symSize: 0x10 }
  - { offsetInCU: 0x13B64, offset: 0x13B64, size: 0x8, addend: 0x0, symName: __ZNSt3__118__debug_db_erase_cB7v160006INS_6vectorIN3glm3vecILi2EfLNS2_9qualifierE0EEENS_9allocatorIS5_EEEEEEvPT_, symObjAddr: 0x28F0, symBinAddr: 0x100005D50, symSize: 0x10 }
  - { offsetInCU: 0x13B95, offset: 0x13B95, size: 0x8, addend: 0x0, symName: __ZNSt3__112__to_addressB7v160006IN3glm3vecILi2EfLNS1_9qualifierE0EEEEEPT_S6_, symObjAddr: 0x29E0, symBinAddr: 0x100005E40, symSize: 0x10 }
  - { offsetInCU: 0x13BCA, offset: 0x13BCA, size: 0x8, addend: 0x0, symName: __ZNSt3__119__debug_db_insert_cB7v160006INS_6vectorI4FaceNS_9allocatorIS2_EEEEEEvPT_, symObjAddr: 0x2C00, symBinAddr: 0x100006060, symSize: 0x10 }
  - { offsetInCU: 0x13BFB, offset: 0x13BFB, size: 0x8, addend: 0x0, symName: __ZNSt3__118__debug_db_erase_cB7v160006INS_6vectorI4FaceNS_9allocatorIS2_EEEEEEvPT_, symObjAddr: 0x2E90, symBinAddr: 0x1000062F0, symSize: 0x10 }
  - { offsetInCU: 0x13C2C, offset: 0x13C2C, size: 0x8, addend: 0x0, symName: __ZNSt3__112__to_addressB7v160006I4FaceEEPT_S3_, symObjAddr: 0x2FC0, symBinAddr: 0x100006420, symSize: 0x10 }
  - { offsetInCU: 0x13C61, offset: 0x13C61, size: 0x8, addend: 0x0, symName: __ZNSt3__116__pad_and_outputB7v160006IcNS_11char_traitsIcEEEENS_19ostreambuf_iteratorIT_T0_EES6_PKS4_S8_S8_RNS_8ios_baseES4_, symObjAddr: 0x3530, symBinAddr: 0x100006990, symSize: 0x220 }
  - { offsetInCU: 0x13D31, offset: 0x13D31, size: 0x8, addend: 0x0, symName: __ZNSt3__112__to_addressB7v160006IcEEPT_S2_, symObjAddr: 0x3960, symBinAddr: 0x100006DC0, symSize: 0x10 }
  - { offsetInCU: 0x13D99, offset: 0x13D99, size: 0x8, addend: 0x0, symName: __ZNSt3__19use_facetB7v160006INS_5ctypeIcEEEERKT_RKNS_6localeE, symObjAddr: 0x3B50, symBinAddr: 0x100006FB0, symSize: 0x30 }
  - { offsetInCU: 0x14268, offset: 0x14268, size: 0x8, addend: 0x0, symName: __ZNSt3__118__constexpr_strlenB7v160006EPKc, symObjAddr: 0x3BB0, symBinAddr: 0x100007010, symSize: 0x20 }
  - { offsetInCU: 0x14294, offset: 0x14294, size: 0x8, addend: 0x0, symName: __ZNSt3__17getlineB7v160006IcNS_11char_traitsIcEENS_9allocatorIcEEEERNS_13basic_istreamIT_T0_EES9_RNS_12basic_stringIS6_S7_T1_EES6_, symObjAddr: 0x3BD0, symBinAddr: 0x100007030, symSize: 0x220 }
  - { offsetInCU: 0x14352, offset: 0x14352, size: 0x8, addend: 0x0, symName: __ZNSt3__125__debug_db_invalidate_allB7v160006INS_12basic_stringIcNS_11char_traitsIcEENS_9allocatorIcEEEEEEvPT_, symObjAddr: 0x40B0, symBinAddr: 0x100007510, symSize: 0x10 }
  - { offsetInCU: 0x1456F, offset: 0x1456F, size: 0x8, addend: 0x0, symName: __ZNSt3__13maxB7v160006ImEERKT_S3_S3_, symObjAddr: 0x4860, symBinAddr: 0x100007CC0, symSize: 0x30 }
  - { offsetInCU: 0x145B2, offset: 0x145B2, size: 0x8, addend: 0x0, symName: __ZNSt3__13minB7v160006ImEERKT_S3_S3_, symObjAddr: 0x4890, symBinAddr: 0x100007CF0, symSize: 0x30 }
  - { offsetInCU: 0x147DF, offset: 0x147DF, size: 0x8, addend: 0x0, symName: __ZNSt3__13minB7v160006ImNS_6__lessImmEEEERKT_S5_S5_T0_, symObjAddr: 0x4910, symBinAddr: 0x100007D70, symSize: 0x50 }
  - { offsetInCU: 0x14874, offset: 0x14874, size: 0x8, addend: 0x0, symName: __ZNSt3__120__throw_length_errorB7v160006EPKc, symObjAddr: 0x49F0, symBinAddr: 0x100007E50, symSize: 0x70 }
  - { offsetInCU: 0x1489C, offset: 0x1489C, size: 0x8, addend: 0x0, symName: __ZNSt3__13maxB7v160006ImNS_6__lessImmEEEERKT_S5_S5_T0_, symObjAddr: 0x4AD0, symBinAddr: 0x100007F30, symSize: 0x50 }
  - { offsetInCU: 0x148F6, offset: 0x148F6, size: 0x8, addend: 0x0, symName: __ZNSt3__119__allocate_at_leastB7v160006INS_9allocatorIN3glm3vecILi3EfLNS2_9qualifierE0EEEEEEENS_19__allocation_resultINS_16allocator_traitsIT_E7pointerEEERS9_m, symObjAddr: 0x4C10, symBinAddr: 0x100008070, symSize: 0x40 }
  - { offsetInCU: 0x14939, offset: 0x14939, size: 0x8, addend: 0x0, symName: __ZNSt3__117__libcpp_allocateB7v160006Emm, symObjAddr: 0x4D80, symBinAddr: 0x1000081E0, symSize: 0x60 }
  - { offsetInCU: 0x14993, offset: 0x14993, size: 0x8, addend: 0x0, symName: __ZNSt3__121__libcpp_operator_newB7v160006IJmSt11align_val_tEEEPvDpT_, symObjAddr: 0x4DE0, symBinAddr: 0x100008240, symSize: 0x30 }
  - { offsetInCU: 0x149E0, offset: 0x149E0, size: 0x8, addend: 0x0, symName: __ZNSt3__121__libcpp_operator_newB7v160006IJmEEEPvDpT_, symObjAddr: 0x4E10, symBinAddr: 0x100008270, symSize: 0x20 }
  - { offsetInCU: 0x14A19, offset: 0x14A19, size: 0x8, addend: 0x0, symName: __ZNSt3__142__uninitialized_allocator_move_if_noexceptB7v160006INS_9allocatorIN3glm3vecILi3EfLNS2_9qualifierE0EEEEENS_16reverse_iteratorIPS5_EES9_S5_vEET1_RT_T0_SD_SA_, symObjAddr: 0x4E90, symBinAddr: 0x1000082F0, symSize: 0x70 }
  - { offsetInCU: 0x14A95, offset: 0x14A95, size: 0x8, addend: 0x0, symName: __ZNSt3__14swapB7v160006IPN3glm3vecILi3EfLNS1_9qualifierE0EEEEENS_9enable_ifIXaasr21is_move_constructibleIT_EE5valuesr18is_move_assignableIS7_EE5valueEvE4typeERS7_SA_, symObjAddr: 0x4F50, symBinAddr: 0x1000083B0, symSize: 0x40 }
  - { offsetInCU: 0x14AE6, offset: 0x14AE6, size: 0x8, addend: 0x0, symName: __ZNSt3__125__debug_db_invalidate_allB7v160006INS_6vectorIN3glm3vecILi3EfLNS2_9qualifierE0EEENS_9allocatorIS5_EEEEEEvPT_, symObjAddr: 0x5030, symBinAddr: 0x100008490, symSize: 0x10 }
  - { offsetInCU: 0x14B17, offset: 0x14B17, size: 0x8, addend: 0x0, symName: __ZNSt3__14moveB7v160006INS_16reverse_iteratorIPN3glm3vecILi3EfLNS2_9qualifierE0EEEEES7_EET0_T_S9_S8_, symObjAddr: 0x5040, symBinAddr: 0x1000084A0, symSize: 0x80 }
  - { offsetInCU: 0x14B71, offset: 0x14B71, size: 0x8, addend: 0x0, symName: __ZNSt3__16__moveB7v160006INS_17_ClassicAlgPolicyENS_16reverse_iteratorIPN3glm3vecILi3EfLNS3_9qualifierE0EEEEES8_S8_EENS_4pairIT0_T2_EESA_T1_SB_, symObjAddr: 0x50C0, symBinAddr: 0x100008520, symSize: 0x90 }
  - { offsetInCU: 0x14BDD, offset: 0x14BDD, size: 0x8, addend: 0x0, symName: __ZNSt3__123__dispatch_copy_or_moveB7v160006INS_17_ClassicAlgPolicyENS_11__move_loopIS1_EENS_14__move_trivialENS_16reverse_iteratorIPN3glm3vecILi3EfLNS6_9qualifierE0EEEEESB_SB_EENS_4pairIT2_T4_EESD_T3_SE_, symObjAddr: 0x5150, symBinAddr: 0x1000085B0, symSize: 0x90 }
  - { offsetInCU: 0x14C5B, offset: 0x14C5B, size: 0x8, addend: 0x0, symName: __ZNSt3__121__unwrap_and_dispatchB7v160006INS_10__overloadINS_11__move_loopINS_17_ClassicAlgPolicyEEENS_14__move_trivialEEENS_16reverse_iteratorIPN3glm3vecILi3EfLNS8_9qualifierE0EEEEESD_SD_Li0EEENS_4pairIT0_T2_EESF_T1_SG_, symObjAddr: 0x51E0, symBinAddr: 0x100008640, symSize: 0x210 }
  - { offsetInCU: 0x14CEA, offset: 0x14CEA, size: 0x8, addend: 0x0, symName: __ZNSt3__114__unwrap_rangeB7v160006INS_16reverse_iteratorIPN3glm3vecILi3EfLNS2_9qualifierE0EEEEES7_EENS_4pairIT0_S9_EET_SB_, symObjAddr: 0x53F0, symBinAddr: 0x100008850, symSize: 0x90 }
  - { offsetInCU: 0x14F22, offset: 0x14F22, size: 0x8, addend: 0x0, symName: __ZNSt3__113__unwrap_iterB7v160006INS_16reverse_iteratorIPN3glm3vecILi3EfLNS2_9qualifierE0EEEEENS_18__unwrap_iter_implIS7_Lb0EEELi0EEEDTclsrT0_8__unwrapclsr3stdE7declvalIT_EEEESB_, symObjAddr: 0x5520, symBinAddr: 0x100008980, symSize: 0x40 }
  - { offsetInCU: 0x14F66, offset: 0x14F66, size: 0x8, addend: 0x0, symName: __ZNSt3__19make_pairB7v160006INS_16reverse_iteratorIPN3glm3vecILi3EfLNS2_9qualifierE0EEEEES7_EENS_4pairINS_18__unwrap_ref_decayIT_E4typeENS9_IT0_E4typeEEEOSA_OSD_, symObjAddr: 0x5560, symBinAddr: 0x1000089C0, symSize: 0x30 }
  - { offsetInCU: 0x14FB5, offset: 0x14FB5, size: 0x8, addend: 0x0, symName: __ZNSt3__114__rewrap_rangeB7v160006INS_16reverse_iteratorIPN3glm3vecILi3EfLNS2_9qualifierE0EEEEES7_EET_S8_T0_, symObjAddr: 0x5590, symBinAddr: 0x1000089F0, symSize: 0x60 }
  - { offsetInCU: 0x15001, offset: 0x15001, size: 0x8, addend: 0x0, symName: __ZNSt3__113__rewrap_iterB7v160006INS_16reverse_iteratorIPN3glm3vecILi3EfLNS2_9qualifierE0EEEEES7_NS_18__unwrap_iter_implIS7_Lb0EEEEET_SA_T0_, symObjAddr: 0x55F0, symBinAddr: 0x100008A50, symSize: 0x70 }
  - { offsetInCU: 0x15056, offset: 0x15056, size: 0x8, addend: 0x0, symName: __ZNSt3__1neB7v160006IPN3glm3vecILi3EfLNS1_9qualifierE0EEES5_EEbRKNS_16reverse_iteratorIT_EERKNS6_IT0_EE, symObjAddr: 0x5660, symBinAddr: 0x100008AC0, symSize: 0x40 }
  - { offsetInCU: 0x151ED, offset: 0x151ED, size: 0x8, addend: 0x0, symName: __ZNSt3__119__allocate_at_leastB7v160006INS_9allocatorIN3glm3vecILi2EfLNS2_9qualifierE0EEEEEEENS_19__allocation_resultINS_16allocator_traitsIT_E7pointerEEERS9_m, symObjAddr: 0x60C0, symBinAddr: 0x100009520, symSize: 0x40 }
  - { offsetInCU: 0x15230, offset: 0x15230, size: 0x8, addend: 0x0, symName: __ZNSt3__142__uninitialized_allocator_move_if_noexceptB7v160006INS_9allocatorIN3glm3vecILi2EfLNS2_9qualifierE0EEEEENS_16reverse_iteratorIPS5_EES9_S5_vEET1_RT_T0_SD_SA_, symObjAddr: 0x6250, symBinAddr: 0x1000096B0, symSize: 0x70 }
  - { offsetInCU: 0x152AC, offset: 0x152AC, size: 0x8, addend: 0x0, symName: __ZNSt3__14swapB7v160006IPN3glm3vecILi2EfLNS1_9qualifierE0EEEEENS_9enable_ifIXaasr21is_move_constructibleIT_EE5valuesr18is_move_assignableIS7_EE5valueEvE4typeERS7_SA_, symObjAddr: 0x6310, symBinAddr: 0x100009770, symSize: 0x40 }
  - { offsetInCU: 0x152FD, offset: 0x152FD, size: 0x8, addend: 0x0, symName: __ZNSt3__125__debug_db_invalidate_allB7v160006INS_6vectorIN3glm3vecILi2EfLNS2_9qualifierE0EEENS_9allocatorIS5_EEEEEEvPT_, symObjAddr: 0x6400, symBinAddr: 0x100009860, symSize: 0x10 }
  - { offsetInCU: 0x1532E, offset: 0x1532E, size: 0x8, addend: 0x0, symName: __ZNSt3__14moveB7v160006INS_16reverse_iteratorIPN3glm3vecILi2EfLNS2_9qualifierE0EEEEES7_EET0_T_S9_S8_, symObjAddr: 0x6410, symBinAddr: 0x100009870, symSize: 0x80 }
  - { offsetInCU: 0x15388, offset: 0x15388, size: 0x8, addend: 0x0, symName: __ZNSt3__16__moveB7v160006INS_17_ClassicAlgPolicyENS_16reverse_iteratorIPN3glm3vecILi2EfLNS3_9qualifierE0EEEEES8_S8_EENS_4pairIT0_T2_EESA_T1_SB_, symObjAddr: 0x6490, symBinAddr: 0x1000098F0, symSize: 0x90 }
  - { offsetInCU: 0x153F4, offset: 0x153F4, size: 0x8, addend: 0x0, symName: __ZNSt3__123__dispatch_copy_or_moveB7v160006INS_17_ClassicAlgPolicyENS_11__move_loopIS1_EENS_14__move_trivialENS_16reverse_iteratorIPN3glm3vecILi2EfLNS6_9qualifierE0EEEEESB_SB_EENS_4pairIT2_T4_EESD_T3_SE_, symObjAddr: 0x6520, symBinAddr: 0x100009980, symSize: 0x90 }
  - { offsetInCU: 0x15472, offset: 0x15472, size: 0x8, addend: 0x0, symName: __ZNSt3__121__unwrap_and_dispatchB7v160006INS_10__overloadINS_11__move_loopINS_17_ClassicAlgPolicyEEENS_14__move_trivialEEENS_16reverse_iteratorIPN3glm3vecILi2EfLNS8_9qualifierE0EEEEESD_SD_Li0EEENS_4pairIT0_T2_EESF_T1_SG_, symObjAddr: 0x65B0, symBinAddr: 0x100009A10, symSize: 0x210 }
  - { offsetInCU: 0x15501, offset: 0x15501, size: 0x8, addend: 0x0, symName: __ZNSt3__114__unwrap_rangeB7v160006INS_16reverse_iteratorIPN3glm3vecILi2EfLNS2_9qualifierE0EEEEES7_EENS_4pairIT0_S9_EET_SB_, symObjAddr: 0x67C0, symBinAddr: 0x100009C20, symSize: 0x90 }
  - { offsetInCU: 0x15621, offset: 0x15621, size: 0x8, addend: 0x0, symName: __ZNSt3__113__unwrap_iterB7v160006INS_16reverse_iteratorIPN3glm3vecILi2EfLNS2_9qualifierE0EEEEENS_18__unwrap_iter_implIS7_Lb0EEELi0EEEDTclsrT0_8__unwrapclsr3stdE7declvalIT_EEEESB_, symObjAddr: 0x68F0, symBinAddr: 0x100009D50, symSize: 0x40 }
  - { offsetInCU: 0x15665, offset: 0x15665, size: 0x8, addend: 0x0, symName: __ZNSt3__19make_pairB7v160006INS_16reverse_iteratorIPN3glm3vecILi2EfLNS2_9qualifierE0EEEEES7_EENS_4pairINS_18__unwrap_ref_decayIT_E4typeENS9_IT0_E4typeEEEOSA_OSD_, symObjAddr: 0x6930, symBinAddr: 0x100009D90, symSize: 0x30 }
  - { offsetInCU: 0x156B4, offset: 0x156B4, size: 0x8, addend: 0x0, symName: __ZNSt3__114__rewrap_rangeB7v160006INS_16reverse_iteratorIPN3glm3vecILi2EfLNS2_9qualifierE0EEEEES7_EET_S8_T0_, symObjAddr: 0x6960, symBinAddr: 0x100009DC0, symSize: 0x60 }
  - { offsetInCU: 0x15700, offset: 0x15700, size: 0x8, addend: 0x0, symName: __ZNSt3__113__rewrap_iterB7v160006INS_16reverse_iteratorIPN3glm3vecILi2EfLNS2_9qualifierE0EEEEES7_NS_18__unwrap_iter_implIS7_Lb0EEEEET_SA_T0_, symObjAddr: 0x69C0, symBinAddr: 0x100009E20, symSize: 0x70 }
  - { offsetInCU: 0x15755, offset: 0x15755, size: 0x8, addend: 0x0, symName: __ZNSt3__1neB7v160006IPN3glm3vecILi2EfLNS1_9qualifierE0EEES5_EEbRKNS_16reverse_iteratorIT_EERKNS6_IT0_EE, symObjAddr: 0x6A30, symBinAddr: 0x100009E90, symSize: 0x40 }
  - { offsetInCU: 0x1580D, offset: 0x1580D, size: 0x8, addend: 0x0, symName: __ZNSt3__119__allocate_at_leastB7v160006INS_9allocatorI4FaceEEEENS_19__allocation_resultINS_16allocator_traitsIT_E7pointerEEERS6_m, symObjAddr: 0x7480, symBinAddr: 0x10000A8E0, symSize: 0x40 }
  - { offsetInCU: 0x15850, offset: 0x15850, size: 0x8, addend: 0x0, symName: __ZNSt3__142__uninitialized_allocator_move_if_noexceptB7v160006INS_9allocatorI4FaceEENS_16reverse_iteratorIPS2_EES6_S2_vEET1_RT_T0_SA_S7_, symObjAddr: 0x7610, symBinAddr: 0x10000AA70, symSize: 0x70 }
  - { offsetInCU: 0x158CC, offset: 0x158CC, size: 0x8, addend: 0x0, symName: __ZNSt3__14swapB7v160006IP4FaceEENS_9enable_ifIXaasr21is_move_constructibleIT_EE5valuesr18is_move_assignableIS4_EE5valueEvE4typeERS4_S7_, symObjAddr: 0x76D0, symBinAddr: 0x10000AB30, symSize: 0x40 }
  - { offsetInCU: 0x1591D, offset: 0x1591D, size: 0x8, addend: 0x0, symName: __ZNSt3__125__debug_db_invalidate_allB7v160006INS_6vectorI4FaceNS_9allocatorIS2_EEEEEEvPT_, symObjAddr: 0x77B0, symBinAddr: 0x10000AC10, symSize: 0x10 }
  - { offsetInCU: 0x1594E, offset: 0x1594E, size: 0x8, addend: 0x0, symName: __ZNSt3__14moveB7v160006INS_16reverse_iteratorIP4FaceEES4_EET0_T_S6_S5_, symObjAddr: 0x77C0, symBinAddr: 0x10000AC20, symSize: 0x80 }
  - { offsetInCU: 0x159A8, offset: 0x159A8, size: 0x8, addend: 0x0, symName: __ZNSt3__16__moveB7v160006INS_17_ClassicAlgPolicyENS_16reverse_iteratorIP4FaceEES5_S5_EENS_4pairIT0_T2_EES7_T1_S8_, symObjAddr: 0x7840, symBinAddr: 0x10000ACA0, symSize: 0x90 }
  - { offsetInCU: 0x15A14, offset: 0x15A14, size: 0x8, addend: 0x0, symName: __ZNSt3__123__dispatch_copy_or_moveB7v160006INS_17_ClassicAlgPolicyENS_11__move_loopIS1_EENS_14__move_trivialENS_16reverse_iteratorIP4FaceEES8_S8_EENS_4pairIT2_T4_EESA_T3_SB_, symObjAddr: 0x78D0, symBinAddr: 0x10000AD30, symSize: 0x90 }
  - { offsetInCU: 0x15A92, offset: 0x15A92, size: 0x8, addend: 0x0, symName: __ZNSt3__121__unwrap_and_dispatchB7v160006INS_10__overloadINS_11__move_loopINS_17_ClassicAlgPolicyEEENS_14__move_trivialEEENS_16reverse_iteratorIP4FaceEESA_SA_Li0EEENS_4pairIT0_T2_EESC_T1_SD_, symObjAddr: 0x7960, symBinAddr: 0x10000ADC0, symSize: 0x210 }
  - { offsetInCU: 0x15B21, offset: 0x15B21, size: 0x8, addend: 0x0, symName: __ZNSt3__114__unwrap_rangeB7v160006INS_16reverse_iteratorIP4FaceEES4_EENS_4pairIT0_S6_EET_S8_, symObjAddr: 0x7B70, symBinAddr: 0x10000AFD0, symSize: 0x90 }
  - { offsetInCU: 0x15C41, offset: 0x15C41, size: 0x8, addend: 0x0, symName: __ZNSt3__113__unwrap_iterB7v160006INS_16reverse_iteratorIP4FaceEENS_18__unwrap_iter_implIS4_Lb0EEELi0EEEDTclsrT0_8__unwrapclsr3stdE7declvalIT_EEEES8_, symObjAddr: 0x7CA0, symBinAddr: 0x10000B100, symSize: 0x40 }
  - { offsetInCU: 0x15C85, offset: 0x15C85, size: 0x8, addend: 0x0, symName: __ZNSt3__19make_pairB7v160006INS_16reverse_iteratorIP4FaceEES4_EENS_4pairINS_18__unwrap_ref_decayIT_E4typeENS6_IT0_E4typeEEEOS7_OSA_, symObjAddr: 0x7CE0, symBinAddr: 0x10000B140, symSize: 0x30 }
  - { offsetInCU: 0x15CD4, offset: 0x15CD4, size: 0x8, addend: 0x0, symName: __ZNSt3__114__rewrap_rangeB7v160006INS_16reverse_iteratorIP4FaceEES4_EET_S5_T0_, symObjAddr: 0x7D10, symBinAddr: 0x10000B170, symSize: 0x60 }
  - { offsetInCU: 0x15D20, offset: 0x15D20, size: 0x8, addend: 0x0, symName: __ZNSt3__113__rewrap_iterB7v160006INS_16reverse_iteratorIP4FaceEES4_NS_18__unwrap_iter_implIS4_Lb0EEEEET_S7_T0_, symObjAddr: 0x7D70, symBinAddr: 0x10000B1D0, symSize: 0x70 }
  - { offsetInCU: 0x15D75, offset: 0x15D75, size: 0x8, addend: 0x0, symName: __ZNSt3__1neB7v160006IP4FaceS2_EEbRKNS_16reverse_iteratorIT_EERKNS3_IT0_EE, symObjAddr: 0x7DE0, symBinAddr: 0x10000B240, symSize: 0x40 }
  - { offsetInCU: 0x15E2D, offset: 0x15E2D, size: 0x8, addend: 0x0, symName: __ZNSt3__119__debug_db_insert_cB7v160006INS_6vectorIjNS_9allocatorIjEEEEEEvPT_, symObjAddr: 0x81E0, symBinAddr: 0x10000B640, symSize: 0x10 }
  - { offsetInCU: 0x15E5E, offset: 0x15E5E, size: 0x8, addend: 0x0, symName: __ZNSt3__118__debug_db_erase_cB7v160006INS_6vectorIjNS_9allocatorIjEEEEEEvPT_, symObjAddr: 0x8470, symBinAddr: 0x10000B8D0, symSize: 0x10 }
  - { offsetInCU: 0x15E8F, offset: 0x15E8F, size: 0x8, addend: 0x0, symName: __ZNSt3__112__to_addressB7v160006IjEEPT_S2_, symObjAddr: 0x8560, symBinAddr: 0x10000B9C0, symSize: 0x10 }
  - { offsetInCU: 0x15EC4, offset: 0x15EC4, size: 0x8, addend: 0x0, symName: __ZNSt3__119__allocate_at_leastB7v160006INS_9allocatorIjEEEENS_19__allocation_resultINS_16allocator_traitsIT_E7pointerEEERS5_m, symObjAddr: 0x8E60, symBinAddr: 0x10000C2C0, symSize: 0x40 }
  - { offsetInCU: 0x15F07, offset: 0x15F07, size: 0x8, addend: 0x0, symName: __ZNSt3__142__uninitialized_allocator_move_if_noexceptB7v160006INS_9allocatorIjEENS_16reverse_iteratorIPjEES5_jvEET1_RT_T0_S9_S6_, symObjAddr: 0x8FF0, symBinAddr: 0x10000C450, symSize: 0x70 }
  - { offsetInCU: 0x15F83, offset: 0x15F83, size: 0x8, addend: 0x0, symName: __ZNSt3__14swapB7v160006IPjEENS_9enable_ifIXaasr21is_move_constructibleIT_EE5valuesr18is_move_assignableIS3_EE5valueEvE4typeERS3_S6_, symObjAddr: 0x90B0, symBinAddr: 0x10000C510, symSize: 0x40 }
  - { offsetInCU: 0x15FD4, offset: 0x15FD4, size: 0x8, addend: 0x0, symName: __ZNSt3__125__debug_db_invalidate_allB7v160006INS_6vectorIjNS_9allocatorIjEEEEEEvPT_, symObjAddr: 0x91A0, symBinAddr: 0x10000C600, symSize: 0x10 }
  - { offsetInCU: 0x16005, offset: 0x16005, size: 0x8, addend: 0x0, symName: __ZNSt3__14moveB7v160006INS_16reverse_iteratorIPjEES3_EET0_T_S5_S4_, symObjAddr: 0x91B0, symBinAddr: 0x10000C610, symSize: 0x80 }
  - { offsetInCU: 0x1605F, offset: 0x1605F, size: 0x8, addend: 0x0, symName: __ZNSt3__16__moveB7v160006INS_17_ClassicAlgPolicyENS_16reverse_iteratorIPjEES4_S4_EENS_4pairIT0_T2_EES6_T1_S7_, symObjAddr: 0x9230, symBinAddr: 0x10000C690, symSize: 0x90 }
  - { offsetInCU: 0x160CB, offset: 0x160CB, size: 0x8, addend: 0x0, symName: __ZNSt3__123__dispatch_copy_or_moveB7v160006INS_17_ClassicAlgPolicyENS_11__move_loopIS1_EENS_14__move_trivialENS_16reverse_iteratorIPjEES7_S7_EENS_4pairIT2_T4_EES9_T3_SA_, symObjAddr: 0x92C0, symBinAddr: 0x10000C720, symSize: 0x90 }
  - { offsetInCU: 0x16149, offset: 0x16149, size: 0x8, addend: 0x0, symName: __ZNSt3__121__unwrap_and_dispatchB7v160006INS_10__overloadINS_11__move_loopINS_17_ClassicAlgPolicyEEENS_14__move_trivialEEENS_16reverse_iteratorIPjEES9_S9_Li0EEENS_4pairIT0_T2_EESB_T1_SC_, symObjAddr: 0x9350, symBinAddr: 0x10000C7B0, symSize: 0x210 }
  - { offsetInCU: 0x161D8, offset: 0x161D8, size: 0x8, addend: 0x0, symName: __ZNSt3__114__unwrap_rangeB7v160006INS_16reverse_iteratorIPjEES3_EENS_4pairIT0_S5_EET_S7_, symObjAddr: 0x9560, symBinAddr: 0x10000C9C0, symSize: 0x90 }
  - { offsetInCU: 0x162F8, offset: 0x162F8, size: 0x8, addend: 0x0, symName: __ZNSt3__113__unwrap_iterB7v160006INS_16reverse_iteratorIPjEENS_18__unwrap_iter_implIS3_Lb0EEELi0EEEDTclsrT0_8__unwrapclsr3stdE7declvalIT_EEEES7_, symObjAddr: 0x9690, symBinAddr: 0x10000CAF0, symSize: 0x40 }
  - { offsetInCU: 0x1633C, offset: 0x1633C, size: 0x8, addend: 0x0, symName: __ZNSt3__19make_pairB7v160006INS_16reverse_iteratorIPjEES3_EENS_4pairINS_18__unwrap_ref_decayIT_E4typeENS5_IT0_E4typeEEEOS6_OS9_, symObjAddr: 0x96D0, symBinAddr: 0x10000CB30, symSize: 0x30 }
  - { offsetInCU: 0x1638B, offset: 0x1638B, size: 0x8, addend: 0x0, symName: __ZNSt3__114__rewrap_rangeB7v160006INS_16reverse_iteratorIPjEES3_EET_S4_T0_, symObjAddr: 0x9700, symBinAddr: 0x10000CB60, symSize: 0x60 }
  - { offsetInCU: 0x163D7, offset: 0x163D7, size: 0x8, addend: 0x0, symName: __ZNSt3__113__rewrap_iterB7v160006INS_16reverse_iteratorIPjEES3_NS_18__unwrap_iter_implIS3_Lb0EEEEET_S6_T0_, symObjAddr: 0x9760, symBinAddr: 0x10000CBC0, symSize: 0x70 }
  - { offsetInCU: 0x1642C, offset: 0x1642C, size: 0x8, addend: 0x0, symName: __ZNSt3__1neB7v160006IPjS1_EEbRKNS_16reverse_iteratorIT_EERKNS2_IT0_EE, symObjAddr: 0x97D0, symBinAddr: 0x10000CC30, symSize: 0x40 }
  - { offsetInCU: 0x169F7, offset: 0x169F7, size: 0x8, addend: 0x0, symName: __ZSt28__throw_bad_array_new_lengthB7v160006v, symObjAddr: 0x4D40, symBinAddr: 0x1000081A0, symSize: 0x40 }
  - { offsetInCU: 0x17798, offset: 0x17798, size: 0x8, addend: 0x0, symName: __ZNSt3__16vectorIN3glm3vecILi3EfLNS1_9qualifierE0EEENS_9allocatorIS4_EEE26__swap_out_circular_bufferERNS_14__split_bufferIS4_RS6_EE, symObjAddr: 0x4690, symBinAddr: 0x100007AF0, symSize: 0x130 }
  - { offsetInCU: 0x177EF, offset: 0x177EF, size: 0x8, addend: 0x0, symName: __ZNSt3__16vectorIN3glm3vecILi2EfLNS1_9qualifierE0EEENS_9allocatorIS4_EEE26__swap_out_circular_bufferERNS_14__split_bufferIS4_RS6_EE, symObjAddr: 0x5D60, symBinAddr: 0x1000091C0, symSize: 0x130 }
  - { offsetInCU: 0x17846, offset: 0x17846, size: 0x8, addend: 0x0, symName: __ZNSt3__16vectorI4FaceNS_9allocatorIS1_EEE26__swap_out_circular_bufferERNS_14__split_bufferIS1_RS3_EE, symObjAddr: 0x7130, symBinAddr: 0x10000A590, symSize: 0x130 }
  - { offsetInCU: 0x17A0F, offset: 0x17A0F, size: 0x8, addend: 0x0, symName: __ZNSt3__16vectorIjNS_9allocatorIjEEE26__swap_out_circular_bufferERNS_14__split_bufferIjRS2_EE, symObjAddr: 0x8B00, symBinAddr: 0x10000BF60, symSize: 0x130 }
  - { offsetInCU: 0x19D7F, offset: 0x19D7F, size: 0x8, addend: 0x0, symName: __ZN4MeshC2Ev, symObjAddr: 0x0, symBinAddr: 0x100003460, symSize: 0x40 }
  - { offsetInCU: 0x19DAB, offset: 0x19DAB, size: 0x8, addend: 0x0, symName: __ZN4MeshC1Ev, symObjAddr: 0x40, symBinAddr: 0x1000034A0, symSize: 0x20 }
  - { offsetInCU: 0x19DD7, offset: 0x19DD7, size: 0x8, addend: 0x0, symName: __ZN4MeshD2Ev, symObjAddr: 0x60, symBinAddr: 0x1000034C0, symSize: 0x30 }
  - { offsetInCU: 0x19E03, offset: 0x19E03, size: 0x8, addend: 0x0, symName: __ZN4Mesh9ClearMeshEv, symObjAddr: 0x90, symBinAddr: 0x1000034F0, symSize: 0x120 }
  - { offsetInCU: 0x19E2B, offset: 0x19E2B, size: 0x8, addend: 0x0, symName: __ZN4MeshD1Ev, symObjAddr: 0x1C0, symBinAddr: 0x100003620, symSize: 0x20 }
  - { offsetInCU: 0x19E57, offset: 0x19E57, size: 0x8, addend: 0x0, symName: __ZN4Mesh10CreateMeshEPfPjjj, symObjAddr: 0x1E0, symBinAddr: 0x100003640, symSize: 0x180 }
  - { offsetInCU: 0x19EB7, offset: 0x19EB7, size: 0x8, addend: 0x0, symName: __ZN4Mesh10RenderMeshEv, symObjAddr: 0x360, symBinAddr: 0x1000037C0, symSize: 0x80 }
  - { offsetInCU: 0x19EDF, offset: 0x19EDF, size: 0x8, addend: 0x0, symName: __ZN4Mesh17CreateMeshFromOBJEPKc, symObjAddr: 0x3E0, symBinAddr: 0x100003840, symSize: 0xD60 }
  - { offsetInCU: 0x1A0D2, offset: 0x1A0D2, size: 0x8, addend: 0x0, symName: __ZNSt3__16vectorIN3glm3vecILi3EfLNS1_9qualifierE0EEENS_9allocatorIS4_EEEC1B7v160006Ev, symObjAddr: 0x1140, symBinAddr: 0x1000045A0, symSize: 0x20 }
  - { offsetInCU: 0x1A0FC, offset: 0x1A0FC, size: 0x8, addend: 0x0, symName: __ZNSt3__16vectorIN3glm3vecILi2EfLNS1_9qualifierE0EEENS_9allocatorIS4_EEEC1B7v160006Ev, symObjAddr: 0x1160, symBinAddr: 0x1000045C0, symSize: 0x20 }
  - { offsetInCU: 0x1A126, offset: 0x1A126, size: 0x8, addend: 0x0, symName: __ZNSt3__16vectorI4FaceNS_9allocatorIS1_EEEC1B7v160006Ev, symObjAddr: 0x1180, symBinAddr: 0x1000045E0, symSize: 0x20 }
  - { offsetInCU: 0x1A269, offset: 0x1A269, size: 0x8, addend: 0x0, symName: __ZNSt3__114basic_ifstreamIcNS_11char_traitsIcEEEC1EPKcj, symObjAddr: 0x11A0, symBinAddr: 0x100004600, symSize: 0x160 }
  - { offsetInCU: 0x1A2B3, offset: 0x1A2B3, size: 0x8, addend: 0x0, symName: __ZNKSt3__114basic_ifstreamIcNS_11char_traitsIcEEE7is_openEv, symObjAddr: 0x1300, symBinAddr: 0x100004760, symSize: 0x30 }
  - { offsetInCU: 0x1A2DB, offset: 0x1A2DB, size: 0x8, addend: 0x0, symName: __ZNSt3__113basic_ostreamIcNS_11char_traitsIcEEElsB7v160006EPFRS3_S4_E, symObjAddr: 0x1370, symBinAddr: 0x1000047D0, symSize: 0x20 }
  - { offsetInCU: 0x1A30F, offset: 0x1A30F, size: 0x8, addend: 0x0, symName: __ZNSt3__112basic_stringIcNS_11char_traitsIcEENS_9allocatorIcEEEC1B7v160006Ev, symObjAddr: 0x13E0, symBinAddr: 0x100004840, symSize: 0x20 }
  - { offsetInCU: 0x1A339, offset: 0x1A339, size: 0x8, addend: 0x0, symName: __ZNKSt3__19basic_iosIcNS_11char_traitsIcEEEcvbB7v160006Ev, symObjAddr: 0x1450, symBinAddr: 0x1000048B0, symSize: 0x30 }
  - { offsetInCU: 0x1A35F, offset: 0x1A35F, size: 0x8, addend: 0x0, symName: __ZNKSt3__112basic_stringIcNS_11char_traitsIcEENS_9allocatorIcEEE6substrB7v160006Emm, symObjAddr: 0x1510, symBinAddr: 0x100004970, symSize: 0x70 }
  - { offsetInCU: 0x1A3A3, offset: 0x1A3A3, size: 0x8, addend: 0x0, symName: __ZNKSt3__112basic_stringIcNS_11char_traitsIcEENS_9allocatorIcEEE5c_strB7v160006Ev, symObjAddr: 0x1580, symBinAddr: 0x1000049E0, symSize: 0x20 }
  - { offsetInCU: 0x1A3C9, offset: 0x1A3C9, size: 0x8, addend: 0x0, symName: __ZNSt3__16vectorIN3glm3vecILi3EfLNS1_9qualifierE0EEENS_9allocatorIS4_EEE9push_backB7v160006ERKS4_, symObjAddr: 0x15A0, symBinAddr: 0x100004A00, symSize: 0x60 }
  - { offsetInCU: 0x1A400, offset: 0x1A400, size: 0x8, addend: 0x0, symName: __ZNSt3__16vectorIN3glm3vecILi2EfLNS1_9qualifierE0EEENS_9allocatorIS4_EEE9push_backB7v160006ERKS4_, symObjAddr: 0x1600, symBinAddr: 0x100004A60, symSize: 0x60 }
  - { offsetInCU: 0x1A437, offset: 0x1A437, size: 0x8, addend: 0x0, symName: __ZNSt3__16vectorI4FaceNS_9allocatorIS1_EEE9push_backB7v160006ERKS1_, symObjAddr: 0x1660, symBinAddr: 0x100004AC0, symSize: 0x60 }
  - { offsetInCU: 0x1A46E, offset: 0x1A46E, size: 0x8, addend: 0x0, symName: __ZNSt3__114basic_ifstreamIcNS_11char_traitsIcEEE5closeEv, symObjAddr: 0x16C0, symBinAddr: 0x100004B20, symSize: 0x50 }
  - { offsetInCU: 0x1A496, offset: 0x1A496, size: 0x8, addend: 0x0, symName: __ZNSt3__16vectorIjNS_9allocatorIjEEEC1B7v160006Ev, symObjAddr: 0x1710, symBinAddr: 0x100004B70, symSize: 0x20 }
  - { offsetInCU: 0x1A4C0, offset: 0x1A4C0, size: 0x8, addend: 0x0, symName: __ZNSt3__16vectorI4FaceNS_9allocatorIS1_EEE5beginB7v160006Ev, symObjAddr: 0x1730, symBinAddr: 0x100004B90, symSize: 0x30 }
  - { offsetInCU: 0x1A4E8, offset: 0x1A4E8, size: 0x8, addend: 0x0, symName: __ZNSt3__16vectorI4FaceNS_9allocatorIS1_EEE3endB7v160006Ev, symObjAddr: 0x1760, symBinAddr: 0x100004BC0, symSize: 0x30 }
  - { offsetInCU: 0x1A510, offset: 0x1A510, size: 0x8, addend: 0x0, symName: __ZNKSt3__111__wrap_iterIP4FaceEdeB7v160006Ev, symObjAddr: 0x17C0, symBinAddr: 0x100004C20, symSize: 0x20 }
  - { offsetInCU: 0x1A536, offset: 0x1A536, size: 0x8, addend: 0x0, symName: __ZNSt3__16vectorIN3glm3vecILi3EfLNS1_9qualifierE0EEENS_9allocatorIS4_EEEixB7v160006Em, symObjAddr: 0x17E0, symBinAddr: 0x100004C40, symSize: 0x20 }
  - { offsetInCU: 0x1A56D, offset: 0x1A56D, size: 0x8, addend: 0x0, symName: __ZNSt3__16vectorIN3glm3vecILi2EfLNS1_9qualifierE0EEENS_9allocatorIS4_EEEixB7v160006Em, symObjAddr: 0x1800, symBinAddr: 0x100004C60, symSize: 0x20 }
  - { offsetInCU: 0x1A5A4, offset: 0x1A5A4, size: 0x8, addend: 0x0, symName: __ZNKSt3__16vectorIN3glm3vecILi3EfLNS1_9qualifierE0EEENS_9allocatorIS4_EEE4sizeB7v160006Ev, symObjAddr: 0x1820, symBinAddr: 0x100004C80, symSize: 0x30 }
  - { offsetInCU: 0x1A5CA, offset: 0x1A5CA, size: 0x8, addend: 0x0, symName: __ZNSt3__16vectorIjNS_9allocatorIjEEE9push_backB7v160006EOj, symObjAddr: 0x1950, symBinAddr: 0x100004DB0, symSize: 0x60 }
  - { offsetInCU: 0x1A601, offset: 0x1A601, size: 0x8, addend: 0x0, symName: __ZNSt3__111__wrap_iterIP4FaceEppB7v160006Ev, symObjAddr: 0x19B0, symBinAddr: 0x100004E10, symSize: 0x20 }
  - { offsetInCU: 0x1A627, offset: 0x1A627, size: 0x8, addend: 0x0, symName: __ZNKSt3__16vectorIjNS_9allocatorIjEEE4sizeB7v160006Ev, symObjAddr: 0x19D0, symBinAddr: 0x100004E30, symSize: 0x20 }
  - { offsetInCU: 0x1A64D, offset: 0x1A64D, size: 0x8, addend: 0x0, symName: __ZNKSt3__16vectorIN3glm3vecILi2EfLNS1_9qualifierE0EEENS_9allocatorIS4_EEE4sizeB7v160006Ev, symObjAddr: 0x19F0, symBinAddr: 0x100004E50, symSize: 0x20 }
  - { offsetInCU: 0x1A673, offset: 0x1A673, size: 0x8, addend: 0x0, symName: __ZNSt3__16vectorIjNS_9allocatorIjEEEixB7v160006Em, symObjAddr: 0x1A10, symBinAddr: 0x100004E70, symSize: 0x20 }
  - { offsetInCU: 0x1A6AA, offset: 0x1A6AA, size: 0x8, addend: 0x0, symName: __ZNSt3__16vectorIjNS_9allocatorIjEEED1B7v160006Ev, symObjAddr: 0x1A30, symBinAddr: 0x100004E90, symSize: 0x20 }
  - { offsetInCU: 0x1A6D9, offset: 0x1A6D9, size: 0x8, addend: 0x0, symName: __ZNSt3__114basic_ifstreamIcNS_11char_traitsIcEEED1Ev, symObjAddr: 0x1A50, symBinAddr: 0x100004EB0, symSize: 0x40 }
  - { offsetInCU: 0x1A706, offset: 0x1A706, size: 0x8, addend: 0x0, symName: __ZNSt3__16vectorI4FaceNS_9allocatorIS1_EEED1B7v160006Ev, symObjAddr: 0x1A90, symBinAddr: 0x100004EF0, symSize: 0x20 }
  - { offsetInCU: 0x1A730, offset: 0x1A730, size: 0x8, addend: 0x0, symName: __ZNSt3__16vectorIN3glm3vecILi3EfLNS1_9qualifierE0EEENS_9allocatorIS4_EEED1B7v160006Ev, symObjAddr: 0x1AB0, symBinAddr: 0x100004F10, symSize: 0x20 }
  - { offsetInCU: 0x1A75A, offset: 0x1A75A, size: 0x8, addend: 0x0, symName: __ZNSt3__16vectorIN3glm3vecILi2EfLNS1_9qualifierE0EEENS_9allocatorIS4_EEED1B7v160006Ev, symObjAddr: 0x1AD0, symBinAddr: 0x100004F30, symSize: 0x20 }
  - { offsetInCU: 0x1A784, offset: 0x1A784, size: 0x8, addend: 0x0, symName: __ZNKSt3__111__wrap_iterIP4FaceE4baseB7v160006Ev, symObjAddr: 0x1B30, symBinAddr: 0x100004F90, symSize: 0x20 }
  - { offsetInCU: 0x1A7AA, offset: 0x1A7AA, size: 0x8, addend: 0x0, symName: __ZN3glm6detail13compute_equalIfLb1EE4callEff, symObjAddr: 0x1B50, symBinAddr: 0x100004FB0, symSize: 0x30 }
  - { offsetInCU: 0x1A7DB, offset: 0x1A7DB, size: 0x8, addend: 0x0, symName: __ZNSt3__114basic_ifstreamIcNS_11char_traitsIcEEED2Ev, symObjAddr: 0x1B80, symBinAddr: 0x100004FE0, symSize: 0x60 }
  - { offsetInCU: 0x1A815, offset: 0x1A815, size: 0x8, addend: 0x0, symName: __ZTv0_n24_NSt3__114basic_ifstreamIcNS_11char_traitsIcEEED1Ev, symObjAddr: 0x1BE0, symBinAddr: 0x100005040, symSize: 0x20 }
  - { offsetInCU: 0x1A82C, offset: 0x1A82C, size: 0x8, addend: 0x0, symName: __ZNSt3__112basic_stringIcNS_11char_traitsIcEENS_9allocatorIcEEEC2B7v160006Ev, symObjAddr: 0x1C00, symBinAddr: 0x100005060, symSize: 0x50 }
  - { offsetInCU: 0x1A85B, offset: 0x1A85B, size: 0x8, addend: 0x0, symName: __ZNSt3__117__compressed_pairINS_12basic_stringIcNS_11char_traitsIcEENS_9allocatorIcEEE5__repES5_EC1B7v160006INS_18__default_init_tagESA_EEOT_OT0_, symObjAddr: 0x1C50, symBinAddr: 0x1000050B0, symSize: 0x30 }
  - { offsetInCU: 0x1A8B3, offset: 0x1A8B3, size: 0x8, addend: 0x0, symName: __ZNSt3__112basic_stringIcNS_11char_traitsIcEENS_9allocatorIcEEE14__default_initB7v160006Ev, symObjAddr: 0x1C90, symBinAddr: 0x1000050F0, symSize: 0x50 }
  - { offsetInCU: 0x1A8D9, offset: 0x1A8D9, size: 0x8, addend: 0x0, symName: __ZNSt3__117__compressed_pairINS_12basic_stringIcNS_11char_traitsIcEENS_9allocatorIcEEE5__repES5_EC2B7v160006INS_18__default_init_tagESA_EEOT_OT0_, symObjAddr: 0x1CE0, symBinAddr: 0x100005140, symSize: 0x30 }
  - { offsetInCU: 0x1A931, offset: 0x1A931, size: 0x8, addend: 0x0, symName: __ZNSt3__122__compressed_pair_elemINS_12basic_stringIcNS_11char_traitsIcEENS_9allocatorIcEEE5__repELi0ELb0EEC2B7v160006ENS_18__default_init_tagE, symObjAddr: 0x1D10, symBinAddr: 0x100005170, symSize: 0x10 }
  - { offsetInCU: 0x1A966, offset: 0x1A966, size: 0x8, addend: 0x0, symName: __ZNSt3__122__compressed_pair_elemINS_9allocatorIcEELi1ELb1EEC2B7v160006ENS_18__default_init_tagE, symObjAddr: 0x1D20, symBinAddr: 0x100005180, symSize: 0x20 }
  - { offsetInCU: 0x1A99B, offset: 0x1A99B, size: 0x8, addend: 0x0, symName: __ZNSt3__19allocatorIcEC2B7v160006Ev, symObjAddr: 0x1D40, symBinAddr: 0x1000051A0, symSize: 0x20 }
  - { offsetInCU: 0x1A9C5, offset: 0x1A9C5, size: 0x8, addend: 0x0, symName: __ZNSt3__116__non_trivial_ifILb1ENS_9allocatorIcEEEC2B7v160006Ev, symObjAddr: 0x1D60, symBinAddr: 0x1000051C0, symSize: 0x10 }
  - { offsetInCU: 0x1A9EF, offset: 0x1A9EF, size: 0x8, addend: 0x0, symName: __ZNSt3__117__compressed_pairINS_12basic_stringIcNS_11char_traitsIcEENS_9allocatorIcEEE5__repES5_E5firstB7v160006Ev, symObjAddr: 0x1D70, symBinAddr: 0x1000051D0, symSize: 0x20 }
  - { offsetInCU: 0x1AA15, offset: 0x1AA15, size: 0x8, addend: 0x0, symName: __ZNSt3__122__compressed_pair_elemINS_12basic_stringIcNS_11char_traitsIcEENS_9allocatorIcEEE5__repELi0ELb0EE5__getB7v160006Ev, symObjAddr: 0x1D90, symBinAddr: 0x1000051F0, symSize: 0x10 }
  - { offsetInCU: 0x1AA3B, offset: 0x1AA3B, size: 0x8, addend: 0x0, symName: __ZNKSt3__112basic_stringIcNS_11char_traitsIcEENS_9allocatorIcEEE4dataB7v160006Ev, symObjAddr: 0x1DA0, symBinAddr: 0x100005200, symSize: 0x30 }
  - { offsetInCU: 0x1AA61, offset: 0x1AA61, size: 0x8, addend: 0x0, symName: __ZNKSt3__112basic_stringIcNS_11char_traitsIcEENS_9allocatorIcEEE13__get_pointerB7v160006Ev, symObjAddr: 0x1DE0, symBinAddr: 0x100005240, symSize: 0x50 }
  - { offsetInCU: 0x1AA87, offset: 0x1AA87, size: 0x8, addend: 0x0, symName: __ZNKSt3__112basic_stringIcNS_11char_traitsIcEENS_9allocatorIcEEE9__is_longB7v160006Ev, symObjAddr: 0x1E30, symBinAddr: 0x100005290, symSize: 0x30 }
  - { offsetInCU: 0x1AAAD, offset: 0x1AAAD, size: 0x8, addend: 0x0, symName: __ZNKSt3__112basic_stringIcNS_11char_traitsIcEENS_9allocatorIcEEE18__get_long_pointerB7v160006Ev, symObjAddr: 0x1E60, symBinAddr: 0x1000052C0, symSize: 0x20 }
  - { offsetInCU: 0x1AAD3, offset: 0x1AAD3, size: 0x8, addend: 0x0, symName: __ZNKSt3__112basic_stringIcNS_11char_traitsIcEENS_9allocatorIcEEE19__get_short_pointerB7v160006Ev, symObjAddr: 0x1E80, symBinAddr: 0x1000052E0, symSize: 0x30 }
  - { offsetInCU: 0x1AAF9, offset: 0x1AAF9, size: 0x8, addend: 0x0, symName: __ZNKSt3__117__compressed_pairINS_12basic_stringIcNS_11char_traitsIcEENS_9allocatorIcEEE5__repES5_E5firstB7v160006Ev, symObjAddr: 0x1EB0, symBinAddr: 0x100005310, symSize: 0x20 }
  - { offsetInCU: 0x1AB1F, offset: 0x1AB1F, size: 0x8, addend: 0x0, symName: __ZNKSt3__122__compressed_pair_elemINS_12basic_stringIcNS_11char_traitsIcEENS_9allocatorIcEEE5__repELi0ELb0EE5__getB7v160006Ev, symObjAddr: 0x1ED0, symBinAddr: 0x100005330, symSize: 0x10 }
  - { offsetInCU: 0x1AB45, offset: 0x1AB45, size: 0x8, addend: 0x0, symName: __ZNSt3__114pointer_traitsIPKcE10pointer_toB7v160006ERS1_, symObjAddr: 0x1EE0, symBinAddr: 0x100005340, symSize: 0x10 }
  - { offsetInCU: 0x1AB68, offset: 0x1AB68, size: 0x8, addend: 0x0, symName: __ZNSt3__16vectorIN3glm3vecILi3EfLNS1_9qualifierE0EEENS_9allocatorIS4_EEEC2B7v160006Ev, symObjAddr: 0x1EF0, symBinAddr: 0x100005350, symSize: 0x60 }
  - { offsetInCU: 0x1AB97, offset: 0x1AB97, size: 0x8, addend: 0x0, symName: __ZNSt3__117__compressed_pairIPN3glm3vecILi3EfLNS1_9qualifierE0EEENS_9allocatorIS4_EEEC1B7v160006IDnNS_18__default_init_tagEEEOT_OT0_, symObjAddr: 0x1F50, symBinAddr: 0x1000053B0, symSize: 0x30 }
  - { offsetInCU: 0x1ABEF, offset: 0x1ABEF, size: 0x8, addend: 0x0, symName: __ZNSt3__117__compressed_pairIPN3glm3vecILi3EfLNS1_9qualifierE0EEENS_9allocatorIS4_EEEC2B7v160006IDnNS_18__default_init_tagEEEOT_OT0_, symObjAddr: 0x1F90, symBinAddr: 0x1000053F0, symSize: 0x40 }
  - { offsetInCU: 0x1AC47, offset: 0x1AC47, size: 0x8, addend: 0x0, symName: __ZNSt3__122__compressed_pair_elemIPN3glm3vecILi3EfLNS1_9qualifierE0EEELi0ELb0EEC2B7v160006IDnvEEOT_, symObjAddr: 0x1FD0, symBinAddr: 0x100005430, symSize: 0x20 }
  - { offsetInCU: 0x1AC89, offset: 0x1AC89, size: 0x8, addend: 0x0, symName: __ZNSt3__122__compressed_pair_elemINS_9allocatorIN3glm3vecILi3EfLNS2_9qualifierE0EEEEELi1ELb1EEC2B7v160006ENS_18__default_init_tagE, symObjAddr: 0x1FF0, symBinAddr: 0x100005450, symSize: 0x20 }
  - { offsetInCU: 0x1ACBE, offset: 0x1ACBE, size: 0x8, addend: 0x0, symName: __ZNSt3__19allocatorIN3glm3vecILi3EfLNS1_9qualifierE0EEEEC2B7v160006Ev, symObjAddr: 0x2010, symBinAddr: 0x100005470, symSize: 0x20 }
  - { offsetInCU: 0x1ACE8, offset: 0x1ACE8, size: 0x8, addend: 0x0, symName: __ZNSt3__116__non_trivial_ifILb1ENS_9allocatorIN3glm3vecILi3EfLNS2_9qualifierE0EEEEEEC2B7v160006Ev, symObjAddr: 0x2030, symBinAddr: 0x100005490, symSize: 0x10 }
  - { offsetInCU: 0x1AD12, offset: 0x1AD12, size: 0x8, addend: 0x0, symName: __ZNSt3__16vectorIN3glm3vecILi3EfLNS1_9qualifierE0EEENS_9allocatorIS4_EEED2B7v160006Ev, symObjAddr: 0x2040, symBinAddr: 0x1000054A0, symSize: 0x40 }
  - { offsetInCU: 0x1AD3C, offset: 0x1AD3C, size: 0x8, addend: 0x0, symName: __ZNSt3__16vectorIN3glm3vecILi3EfLNS1_9qualifierE0EEENS_9allocatorIS4_EEE16__destroy_vectorC1ERS7_, symObjAddr: 0x2080, symBinAddr: 0x1000054E0, symSize: 0x30 }
  - { offsetInCU: 0x1AD75, offset: 0x1AD75, size: 0x8, addend: 0x0, symName: __ZNSt3__16vectorIN3glm3vecILi3EfLNS1_9qualifierE0EEENS_9allocatorIS4_EEE16__destroy_vectorclB7v160006Ev, symObjAddr: 0x20B0, symBinAddr: 0x100005510, symSize: 0x90 }
  - { offsetInCU: 0x1AD9B, offset: 0x1AD9B, size: 0x8, addend: 0x0, symName: __ZNSt3__16vectorIN3glm3vecILi3EfLNS1_9qualifierE0EEENS_9allocatorIS4_EEE16__destroy_vectorC2ERS7_, symObjAddr: 0x2140, symBinAddr: 0x1000055A0, symSize: 0x20 }
  - { offsetInCU: 0x1ADD4, offset: 0x1ADD4, size: 0x8, addend: 0x0, symName: __ZNKSt3__16vectorIN3glm3vecILi3EfLNS1_9qualifierE0EEENS_9allocatorIS4_EEE17__annotate_deleteB7v160006Ev, symObjAddr: 0x2160, symBinAddr: 0x1000055C0, symSize: 0xB0 }
  - { offsetInCU: 0x1ADFA, offset: 0x1ADFA, size: 0x8, addend: 0x0, symName: __ZNSt3__16vectorIN3glm3vecILi3EfLNS1_9qualifierE0EEENS_9allocatorIS4_EEE7__clearB7v160006Ev, symObjAddr: 0x2220, symBinAddr: 0x100005680, symSize: 0x20 }
  - { offsetInCU: 0x1AE20, offset: 0x1AE20, size: 0x8, addend: 0x0, symName: __ZNSt3__116allocator_traitsINS_9allocatorIN3glm3vecILi3EfLNS2_9qualifierE0EEEEEE10deallocateB7v160006ERS6_PS5_m, symObjAddr: 0x2240, symBinAddr: 0x1000056A0, symSize: 0x30 }
  - { offsetInCU: 0x1AE62, offset: 0x1AE62, size: 0x8, addend: 0x0, symName: __ZNSt3__16vectorIN3glm3vecILi3EfLNS1_9qualifierE0EEENS_9allocatorIS4_EEE7__allocB7v160006Ev, symObjAddr: 0x2270, symBinAddr: 0x1000056D0, symSize: 0x20 }
  - { offsetInCU: 0x1AE88, offset: 0x1AE88, size: 0x8, addend: 0x0, symName: __ZNKSt3__16vectorIN3glm3vecILi3EfLNS1_9qualifierE0EEENS_9allocatorIS4_EEE8capacityB7v160006Ev, symObjAddr: 0x2290, symBinAddr: 0x1000056F0, symSize: 0x40 }
  - { offsetInCU: 0x1AEAE, offset: 0x1AEAE, size: 0x8, addend: 0x0, symName: __ZNKSt3__16vectorIN3glm3vecILi3EfLNS1_9qualifierE0EEENS_9allocatorIS4_EEE31__annotate_contiguous_containerB7v160006EPKvS9_S9_S9_, symObjAddr: 0x22D0, symBinAddr: 0x100005730, symSize: 0x20 }
  - { offsetInCU: 0x1AF00, offset: 0x1AF00, size: 0x8, addend: 0x0, symName: __ZNKSt3__16vectorIN3glm3vecILi3EfLNS1_9qualifierE0EEENS_9allocatorIS4_EEE4dataB7v160006Ev, symObjAddr: 0x22F0, symBinAddr: 0x100005750, symSize: 0x20 }
  - { offsetInCU: 0x1AF26, offset: 0x1AF26, size: 0x8, addend: 0x0, symName: __ZNSt3__16vectorIN3glm3vecILi3EfLNS1_9qualifierE0EEENS_9allocatorIS4_EEE22__base_destruct_at_endB7v160006EPS4_, symObjAddr: 0x2320, symBinAddr: 0x100005780, symSize: 0x80 }
  - { offsetInCU: 0x1AF6A, offset: 0x1AF6A, size: 0x8, addend: 0x0, symName: __ZNSt3__116allocator_traitsINS_9allocatorIN3glm3vecILi3EfLNS2_9qualifierE0EEEEEE7destroyB7v160006IS5_vEEvRS6_PT_, symObjAddr: 0x23A0, symBinAddr: 0x100005800, symSize: 0x30 }
  - { offsetInCU: 0x1AFA7, offset: 0x1AFA7, size: 0x8, addend: 0x0, symName: __ZNSt3__19allocatorIN3glm3vecILi3EfLNS1_9qualifierE0EEEE7destroyB7v160006EPS4_, symObjAddr: 0x23D0, symBinAddr: 0x100005830, symSize: 0x10 }
  - { offsetInCU: 0x1AFDB, offset: 0x1AFDB, size: 0x8, addend: 0x0, symName: __ZNSt3__19allocatorIN3glm3vecILi3EfLNS1_9qualifierE0EEEE10deallocateB7v160006EPS4_m, symObjAddr: 0x23E0, symBinAddr: 0x100005840, symSize: 0x50 }
  - { offsetInCU: 0x1B01D, offset: 0x1B01D, size: 0x8, addend: 0x0, symName: __ZNSt3__117__compressed_pairIPN3glm3vecILi3EfLNS1_9qualifierE0EEENS_9allocatorIS4_EEE6secondB7v160006Ev, symObjAddr: 0x2550, symBinAddr: 0x1000059B0, symSize: 0x20 }
  - { offsetInCU: 0x1B043, offset: 0x1B043, size: 0x8, addend: 0x0, symName: __ZNSt3__122__compressed_pair_elemINS_9allocatorIN3glm3vecILi3EfLNS2_9qualifierE0EEEEELi1ELb1EE5__getB7v160006Ev, symObjAddr: 0x2570, symBinAddr: 0x1000059D0, symSize: 0x10 }
  - { offsetInCU: 0x1B069, offset: 0x1B069, size: 0x8, addend: 0x0, symName: __ZNKSt3__16vectorIN3glm3vecILi3EfLNS1_9qualifierE0EEENS_9allocatorIS4_EEE9__end_capB7v160006Ev, symObjAddr: 0x2580, symBinAddr: 0x1000059E0, symSize: 0x20 }
  - { offsetInCU: 0x1B08F, offset: 0x1B08F, size: 0x8, addend: 0x0, symName: __ZNKSt3__117__compressed_pairIPN3glm3vecILi3EfLNS1_9qualifierE0EEENS_9allocatorIS4_EEE5firstB7v160006Ev, symObjAddr: 0x25A0, symBinAddr: 0x100005A00, symSize: 0x20 }
  - { offsetInCU: 0x1B0B5, offset: 0x1B0B5, size: 0x8, addend: 0x0, symName: __ZNKSt3__122__compressed_pair_elemIPN3glm3vecILi3EfLNS1_9qualifierE0EEELi0ELb0EE5__getB7v160006Ev, symObjAddr: 0x25C0, symBinAddr: 0x100005A20, symSize: 0x10 }
  - { offsetInCU: 0x1B0DB, offset: 0x1B0DB, size: 0x8, addend: 0x0, symName: __ZNSt3__16vectorIN3glm3vecILi2EfLNS1_9qualifierE0EEENS_9allocatorIS4_EEEC2B7v160006Ev, symObjAddr: 0x25D0, symBinAddr: 0x100005A30, symSize: 0x60 }
  - { offsetInCU: 0x1B105, offset: 0x1B105, size: 0x8, addend: 0x0, symName: __ZNSt3__117__compressed_pairIPN3glm3vecILi2EfLNS1_9qualifierE0EEENS_9allocatorIS4_EEEC1B7v160006IDnNS_18__default_init_tagEEEOT_OT0_, symObjAddr: 0x2630, symBinAddr: 0x100005A90, symSize: 0x30 }
  - { offsetInCU: 0x1B15D, offset: 0x1B15D, size: 0x8, addend: 0x0, symName: __ZNSt3__117__compressed_pairIPN3glm3vecILi2EfLNS1_9qualifierE0EEENS_9allocatorIS4_EEEC2B7v160006IDnNS_18__default_init_tagEEEOT_OT0_, symObjAddr: 0x2670, symBinAddr: 0x100005AD0, symSize: 0x40 }
  - { offsetInCU: 0x1B1B5, offset: 0x1B1B5, size: 0x8, addend: 0x0, symName: __ZNSt3__122__compressed_pair_elemIPN3glm3vecILi2EfLNS1_9qualifierE0EEELi0ELb0EEC2B7v160006IDnvEEOT_, symObjAddr: 0x26B0, symBinAddr: 0x100005B10, symSize: 0x20 }
  - { offsetInCU: 0x1B1F7, offset: 0x1B1F7, size: 0x8, addend: 0x0, symName: __ZNSt3__122__compressed_pair_elemINS_9allocatorIN3glm3vecILi2EfLNS2_9qualifierE0EEEEELi1ELb1EEC2B7v160006ENS_18__default_init_tagE, symObjAddr: 0x26D0, symBinAddr: 0x100005B30, symSize: 0x20 }
  - { offsetInCU: 0x1B22C, offset: 0x1B22C, size: 0x8, addend: 0x0, symName: __ZNSt3__19allocatorIN3glm3vecILi2EfLNS1_9qualifierE0EEEEC2B7v160006Ev, symObjAddr: 0x26F0, symBinAddr: 0x100005B50, symSize: 0x20 }
  - { offsetInCU: 0x1B256, offset: 0x1B256, size: 0x8, addend: 0x0, symName: __ZNSt3__116__non_trivial_ifILb1ENS_9allocatorIN3glm3vecILi2EfLNS2_9qualifierE0EEEEEEC2B7v160006Ev, symObjAddr: 0x2710, symBinAddr: 0x100005B70, symSize: 0x10 }
  - { offsetInCU: 0x1B280, offset: 0x1B280, size: 0x8, addend: 0x0, symName: __ZNSt3__16vectorIN3glm3vecILi2EfLNS1_9qualifierE0EEENS_9allocatorIS4_EEED2B7v160006Ev, symObjAddr: 0x2720, symBinAddr: 0x100005B80, symSize: 0x40 }
  - { offsetInCU: 0x1B2AA, offset: 0x1B2AA, size: 0x8, addend: 0x0, symName: __ZNSt3__16vectorIN3glm3vecILi2EfLNS1_9qualifierE0EEENS_9allocatorIS4_EEE16__destroy_vectorC1ERS7_, symObjAddr: 0x2760, symBinAddr: 0x100005BC0, symSize: 0x30 }
  - { offsetInCU: 0x1B2E3, offset: 0x1B2E3, size: 0x8, addend: 0x0, symName: __ZNSt3__16vectorIN3glm3vecILi2EfLNS1_9qualifierE0EEENS_9allocatorIS4_EEE16__destroy_vectorclB7v160006Ev, symObjAddr: 0x2790, symBinAddr: 0x100005BF0, symSize: 0x90 }
  - { offsetInCU: 0x1B309, offset: 0x1B309, size: 0x8, addend: 0x0, symName: __ZNSt3__16vectorIN3glm3vecILi2EfLNS1_9qualifierE0EEENS_9allocatorIS4_EEE16__destroy_vectorC2ERS7_, symObjAddr: 0x2820, symBinAddr: 0x100005C80, symSize: 0x20 }
  - { offsetInCU: 0x1B342, offset: 0x1B342, size: 0x8, addend: 0x0, symName: __ZNKSt3__16vectorIN3glm3vecILi2EfLNS1_9qualifierE0EEENS_9allocatorIS4_EEE17__annotate_deleteB7v160006Ev, symObjAddr: 0x2840, symBinAddr: 0x100005CA0, symSize: 0xB0 }
  - { offsetInCU: 0x1B368, offset: 0x1B368, size: 0x8, addend: 0x0, symName: __ZNSt3__16vectorIN3glm3vecILi2EfLNS1_9qualifierE0EEENS_9allocatorIS4_EEE7__clearB7v160006Ev, symObjAddr: 0x2900, symBinAddr: 0x100005D60, symSize: 0x20 }
  - { offsetInCU: 0x1B38E, offset: 0x1B38E, size: 0x8, addend: 0x0, symName: __ZNSt3__116allocator_traitsINS_9allocatorIN3glm3vecILi2EfLNS2_9qualifierE0EEEEEE10deallocateB7v160006ERS6_PS5_m, symObjAddr: 0x2920, symBinAddr: 0x100005D80, symSize: 0x30 }
  - { offsetInCU: 0x1B3D0, offset: 0x1B3D0, size: 0x8, addend: 0x0, symName: __ZNSt3__16vectorIN3glm3vecILi2EfLNS1_9qualifierE0EEENS_9allocatorIS4_EEE7__allocB7v160006Ev, symObjAddr: 0x2950, symBinAddr: 0x100005DB0, symSize: 0x20 }
  - { offsetInCU: 0x1B3F6, offset: 0x1B3F6, size: 0x8, addend: 0x0, symName: __ZNKSt3__16vectorIN3glm3vecILi2EfLNS1_9qualifierE0EEENS_9allocatorIS4_EEE8capacityB7v160006Ev, symObjAddr: 0x2970, symBinAddr: 0x100005DD0, symSize: 0x30 }
  - { offsetInCU: 0x1B41C, offset: 0x1B41C, size: 0x8, addend: 0x0, symName: __ZNKSt3__16vectorIN3glm3vecILi2EfLNS1_9qualifierE0EEENS_9allocatorIS4_EEE31__annotate_contiguous_containerB7v160006EPKvS9_S9_S9_, symObjAddr: 0x29A0, symBinAddr: 0x100005E00, symSize: 0x20 }
  - { offsetInCU: 0x1B46E, offset: 0x1B46E, size: 0x8, addend: 0x0, symName: __ZNKSt3__16vectorIN3glm3vecILi2EfLNS1_9qualifierE0EEENS_9allocatorIS4_EEE4dataB7v160006Ev, symObjAddr: 0x29C0, symBinAddr: 0x100005E20, symSize: 0x20 }
  - { offsetInCU: 0x1B494, offset: 0x1B494, size: 0x8, addend: 0x0, symName: __ZNSt3__16vectorIN3glm3vecILi2EfLNS1_9qualifierE0EEENS_9allocatorIS4_EEE22__base_destruct_at_endB7v160006EPS4_, symObjAddr: 0x29F0, symBinAddr: 0x100005E50, symSize: 0x80 }
  - { offsetInCU: 0x1B4D8, offset: 0x1B4D8, size: 0x8, addend: 0x0, symName: __ZNSt3__116allocator_traitsINS_9allocatorIN3glm3vecILi2EfLNS2_9qualifierE0EEEEEE7destroyB7v160006IS5_vEEvRS6_PT_, symObjAddr: 0x2A70, symBinAddr: 0x100005ED0, symSize: 0x30 }
  - { offsetInCU: 0x1B515, offset: 0x1B515, size: 0x8, addend: 0x0, symName: __ZNSt3__19allocatorIN3glm3vecILi2EfLNS1_9qualifierE0EEEE7destroyB7v160006EPS4_, symObjAddr: 0x2AA0, symBinAddr: 0x100005F00, symSize: 0x10 }
  - { offsetInCU: 0x1B549, offset: 0x1B549, size: 0x8, addend: 0x0, symName: __ZNSt3__19allocatorIN3glm3vecILi2EfLNS1_9qualifierE0EEEE10deallocateB7v160006EPS4_m, symObjAddr: 0x2AB0, symBinAddr: 0x100005F10, symSize: 0x40 }
  - { offsetInCU: 0x1B58B, offset: 0x1B58B, size: 0x8, addend: 0x0, symName: __ZNSt3__117__compressed_pairIPN3glm3vecILi2EfLNS1_9qualifierE0EEENS_9allocatorIS4_EEE6secondB7v160006Ev, symObjAddr: 0x2AF0, symBinAddr: 0x100005F50, symSize: 0x20 }
  - { offsetInCU: 0x1B5B1, offset: 0x1B5B1, size: 0x8, addend: 0x0, symName: __ZNSt3__122__compressed_pair_elemINS_9allocatorIN3glm3vecILi2EfLNS2_9qualifierE0EEEEELi1ELb1EE5__getB7v160006Ev, symObjAddr: 0x2B10, symBinAddr: 0x100005F70, symSize: 0x10 }
  - { offsetInCU: 0x1B5D7, offset: 0x1B5D7, size: 0x8, addend: 0x0, symName: __ZNKSt3__16vectorIN3glm3vecILi2EfLNS1_9qualifierE0EEENS_9allocatorIS4_EEE9__end_capB7v160006Ev, symObjAddr: 0x2B20, symBinAddr: 0x100005F80, symSize: 0x20 }
  - { offsetInCU: 0x1B5FD, offset: 0x1B5FD, size: 0x8, addend: 0x0, symName: __ZNKSt3__117__compressed_pairIPN3glm3vecILi2EfLNS1_9qualifierE0EEENS_9allocatorIS4_EEE5firstB7v160006Ev, symObjAddr: 0x2B40, symBinAddr: 0x100005FA0, symSize: 0x20 }
  - { offsetInCU: 0x1B623, offset: 0x1B623, size: 0x8, addend: 0x0, symName: __ZNKSt3__122__compressed_pair_elemIPN3glm3vecILi2EfLNS1_9qualifierE0EEELi0ELb0EE5__getB7v160006Ev, symObjAddr: 0x2B60, symBinAddr: 0x100005FC0, symSize: 0x10 }
  - { offsetInCU: 0x1B649, offset: 0x1B649, size: 0x8, addend: 0x0, symName: __ZNSt3__16vectorI4FaceNS_9allocatorIS1_EEEC2B7v160006Ev, symObjAddr: 0x2B70, symBinAddr: 0x100005FD0, symSize: 0x60 }
  - { offsetInCU: 0x1B673, offset: 0x1B673, size: 0x8, addend: 0x0, symName: __ZNSt3__117__compressed_pairIP4FaceNS_9allocatorIS1_EEEC1B7v160006IDnNS_18__default_init_tagEEEOT_OT0_, symObjAddr: 0x2BD0, symBinAddr: 0x100006030, symSize: 0x30 }
  - { offsetInCU: 0x1B6CB, offset: 0x1B6CB, size: 0x8, addend: 0x0, symName: __ZNSt3__117__compressed_pairIP4FaceNS_9allocatorIS1_EEEC2B7v160006IDnNS_18__default_init_tagEEEOT_OT0_, symObjAddr: 0x2C10, symBinAddr: 0x100006070, symSize: 0x40 }
  - { offsetInCU: 0x1B723, offset: 0x1B723, size: 0x8, addend: 0x0, symName: __ZNSt3__122__compressed_pair_elemIP4FaceLi0ELb0EEC2B7v160006IDnvEEOT_, symObjAddr: 0x2C50, symBinAddr: 0x1000060B0, symSize: 0x20 }
  - { offsetInCU: 0x1B765, offset: 0x1B765, size: 0x8, addend: 0x0, symName: __ZNSt3__122__compressed_pair_elemINS_9allocatorI4FaceEELi1ELb1EEC2B7v160006ENS_18__default_init_tagE, symObjAddr: 0x2C70, symBinAddr: 0x1000060D0, symSize: 0x20 }
  - { offsetInCU: 0x1B79A, offset: 0x1B79A, size: 0x8, addend: 0x0, symName: __ZNSt3__19allocatorI4FaceEC2B7v160006Ev, symObjAddr: 0x2C90, symBinAddr: 0x1000060F0, symSize: 0x20 }
  - { offsetInCU: 0x1B7C4, offset: 0x1B7C4, size: 0x8, addend: 0x0, symName: __ZNSt3__116__non_trivial_ifILb1ENS_9allocatorI4FaceEEEC2B7v160006Ev, symObjAddr: 0x2CB0, symBinAddr: 0x100006110, symSize: 0x10 }
  - { offsetInCU: 0x1B7EE, offset: 0x1B7EE, size: 0x8, addend: 0x0, symName: __ZNSt3__16vectorI4FaceNS_9allocatorIS1_EEED2B7v160006Ev, symObjAddr: 0x2CC0, symBinAddr: 0x100006120, symSize: 0x40 }
  - { offsetInCU: 0x1B818, offset: 0x1B818, size: 0x8, addend: 0x0, symName: __ZNSt3__16vectorI4FaceNS_9allocatorIS1_EEE16__destroy_vectorC1ERS4_, symObjAddr: 0x2D00, symBinAddr: 0x100006160, symSize: 0x30 }
  - { offsetInCU: 0x1B851, offset: 0x1B851, size: 0x8, addend: 0x0, symName: __ZNSt3__16vectorI4FaceNS_9allocatorIS1_EEE16__destroy_vectorclB7v160006Ev, symObjAddr: 0x2D30, symBinAddr: 0x100006190, symSize: 0x90 }
  - { offsetInCU: 0x1B877, offset: 0x1B877, size: 0x8, addend: 0x0, symName: __ZNSt3__16vectorI4FaceNS_9allocatorIS1_EEE16__destroy_vectorC2ERS4_, symObjAddr: 0x2DC0, symBinAddr: 0x100006220, symSize: 0x20 }
  - { offsetInCU: 0x1B8B0, offset: 0x1B8B0, size: 0x8, addend: 0x0, symName: __ZNKSt3__16vectorI4FaceNS_9allocatorIS1_EEE17__annotate_deleteB7v160006Ev, symObjAddr: 0x2DE0, symBinAddr: 0x100006240, symSize: 0xB0 }
  - { offsetInCU: 0x1B8D6, offset: 0x1B8D6, size: 0x8, addend: 0x0, symName: __ZNSt3__16vectorI4FaceNS_9allocatorIS1_EEE7__clearB7v160006Ev, symObjAddr: 0x2EA0, symBinAddr: 0x100006300, symSize: 0x20 }
  - { offsetInCU: 0x1B8FC, offset: 0x1B8FC, size: 0x8, addend: 0x0, symName: __ZNSt3__116allocator_traitsINS_9allocatorI4FaceEEE10deallocateB7v160006ERS3_PS2_m, symObjAddr: 0x2EC0, symBinAddr: 0x100006320, symSize: 0x30 }
  - { offsetInCU: 0x1B93E, offset: 0x1B93E, size: 0x8, addend: 0x0, symName: __ZNSt3__16vectorI4FaceNS_9allocatorIS1_EEE7__allocB7v160006Ev, symObjAddr: 0x2EF0, symBinAddr: 0x100006350, symSize: 0x20 }
  - { offsetInCU: 0x1B964, offset: 0x1B964, size: 0x8, addend: 0x0, symName: __ZNKSt3__16vectorI4FaceNS_9allocatorIS1_EEE8capacityB7v160006Ev, symObjAddr: 0x2F10, symBinAddr: 0x100006370, symSize: 0x40 }
  - { offsetInCU: 0x1B98A, offset: 0x1B98A, size: 0x8, addend: 0x0, symName: __ZNKSt3__16vectorI4FaceNS_9allocatorIS1_EEE31__annotate_contiguous_containerB7v160006EPKvS6_S6_S6_, symObjAddr: 0x2F50, symBinAddr: 0x1000063B0, symSize: 0x20 }
  - { offsetInCU: 0x1B9DC, offset: 0x1B9DC, size: 0x8, addend: 0x0, symName: __ZNKSt3__16vectorI4FaceNS_9allocatorIS1_EEE4dataB7v160006Ev, symObjAddr: 0x2F70, symBinAddr: 0x1000063D0, symSize: 0x20 }
  - { offsetInCU: 0x1BA02, offset: 0x1BA02, size: 0x8, addend: 0x0, symName: __ZNKSt3__16vectorI4FaceNS_9allocatorIS1_EEE4sizeB7v160006Ev, symObjAddr: 0x2F90, symBinAddr: 0x1000063F0, symSize: 0x30 }
  - { offsetInCU: 0x1BA28, offset: 0x1BA28, size: 0x8, addend: 0x0, symName: __ZNSt3__16vectorI4FaceNS_9allocatorIS1_EEE22__base_destruct_at_endB7v160006EPS1_, symObjAddr: 0x2FD0, symBinAddr: 0x100006430, symSize: 0x80 }
  - { offsetInCU: 0x1BA6C, offset: 0x1BA6C, size: 0x8, addend: 0x0, symName: __ZNSt3__116allocator_traitsINS_9allocatorI4FaceEEE7destroyB7v160006IS2_vEEvRS3_PT_, symObjAddr: 0x3050, symBinAddr: 0x1000064B0, symSize: 0x30 }
  - { offsetInCU: 0x1BAA9, offset: 0x1BAA9, size: 0x8, addend: 0x0, symName: __ZNSt3__19allocatorI4FaceE7destroyB7v160006EPS1_, symObjAddr: 0x3080, symBinAddr: 0x1000064E0, symSize: 0x10 }
  - { offsetInCU: 0x1BADD, offset: 0x1BADD, size: 0x8, addend: 0x0, symName: __ZNSt3__19allocatorI4FaceE10deallocateB7v160006EPS1_m, symObjAddr: 0x3090, symBinAddr: 0x1000064F0, symSize: 0x50 }
  - { offsetInCU: 0x1BB1F, offset: 0x1BB1F, size: 0x8, addend: 0x0, symName: __ZNSt3__117__compressed_pairIP4FaceNS_9allocatorIS1_EEE6secondB7v160006Ev, symObjAddr: 0x30E0, symBinAddr: 0x100006540, symSize: 0x20 }
  - { offsetInCU: 0x1BB45, offset: 0x1BB45, size: 0x8, addend: 0x0, symName: __ZNSt3__122__compressed_pair_elemINS_9allocatorI4FaceEELi1ELb1EE5__getB7v160006Ev, symObjAddr: 0x3100, symBinAddr: 0x100006560, symSize: 0x10 }
  - { offsetInCU: 0x1BB6B, offset: 0x1BB6B, size: 0x8, addend: 0x0, symName: __ZNKSt3__16vectorI4FaceNS_9allocatorIS1_EEE9__end_capB7v160006Ev, symObjAddr: 0x3110, symBinAddr: 0x100006570, symSize: 0x20 }
  - { offsetInCU: 0x1BB91, offset: 0x1BB91, size: 0x8, addend: 0x0, symName: __ZNKSt3__117__compressed_pairIP4FaceNS_9allocatorIS1_EEE5firstB7v160006Ev, symObjAddr: 0x3130, symBinAddr: 0x100006590, symSize: 0x20 }
  - { offsetInCU: 0x1BBB7, offset: 0x1BBB7, size: 0x8, addend: 0x0, symName: __ZNKSt3__122__compressed_pair_elemIP4FaceLi0ELb0EE5__getB7v160006Ev, symObjAddr: 0x3150, symBinAddr: 0x1000065B0, symSize: 0x10 }
  - { offsetInCU: 0x1BBDD, offset: 0x1BBDD, size: 0x8, addend: 0x0, symName: __ZNSt3__19basic_iosIcNS_11char_traitsIcEEEC2B7v160006Ev, symObjAddr: 0x3160, symBinAddr: 0x1000065C0, symSize: 0x40 }
  - { offsetInCU: 0x1BC07, offset: 0x1BC07, size: 0x8, addend: 0x0, symName: __ZNSt3__113basic_istreamIcNS_11char_traitsIcEEEC2B7v160006EPNS_15basic_streambufIcS2_EE, symObjAddr: 0x31A0, symBinAddr: 0x100006600, symSize: 0x50 }
  - { offsetInCU: 0x1BC4C, offset: 0x1BC4C, size: 0x8, addend: 0x0, symName: __ZNSt3__19basic_iosIcNS_11char_traitsIcEEE8setstateB7v160006Ej, symObjAddr: 0x31F0, symBinAddr: 0x100006650, symSize: 0x30 }
  - { offsetInCU: 0x1BC81, offset: 0x1BC81, size: 0x8, addend: 0x0, symName: __ZNSt3__18ios_baseC2B7v160006Ev, symObjAddr: 0x3220, symBinAddr: 0x100006680, symSize: 0x20 }
  - { offsetInCU: 0x1BCAB, offset: 0x1BCAB, size: 0x8, addend: 0x0, symName: __ZNSt3__19basic_iosIcNS_11char_traitsIcEEE4initB7v160006EPNS_15basic_streambufIcS2_EE, symObjAddr: 0x3240, symBinAddr: 0x1000066A0, symSize: 0x50 }
  - { offsetInCU: 0x1BCE2, offset: 0x1BCE2, size: 0x8, addend: 0x0, symName: __ZNSt3__111char_traitsIcE3eofEv, symObjAddr: 0x3290, symBinAddr: 0x1000066F0, symSize: 0x10 }
  - { offsetInCU: 0x1BCF6, offset: 0x1BCF6, size: 0x8, addend: 0x0, symName: __ZNSt3__18ios_base8setstateB7v160006Ej, symObjAddr: 0x32A0, symBinAddr: 0x100006700, symSize: 0x30 }
  - { offsetInCU: 0x1BD2D, offset: 0x1BD2D, size: 0x8, addend: 0x0, symName: __ZNKSt3__113basic_filebufIcNS_11char_traitsIcEEE7is_openEv, symObjAddr: 0x32D0, symBinAddr: 0x100006730, symSize: 0x20 }
  - { offsetInCU: 0x1BD55, offset: 0x1BD55, size: 0x8, addend: 0x0, symName: __ZNSt3__111char_traitsIcE6lengthEPKc, symObjAddr: 0x34E0, symBinAddr: 0x100006940, symSize: 0x30 }
  - { offsetInCU: 0x1BD96, offset: 0x1BD96, size: 0x8, addend: 0x0, symName: __ZNKSt3__113basic_ostreamIcNS_11char_traitsIcEEE6sentrycvbB7v160006Ev, symObjAddr: 0x3510, symBinAddr: 0x100006970, symSize: 0x20 }
  - { offsetInCU: 0x1BDBC, offset: 0x1BDBC, size: 0x8, addend: 0x0, symName: __ZNSt3__119ostreambuf_iteratorIcNS_11char_traitsIcEEEC1B7v160006ERNS_13basic_ostreamIcS2_EE, symObjAddr: 0x3750, symBinAddr: 0x100006BB0, symSize: 0x30 }
  - { offsetInCU: 0x1BDF4, offset: 0x1BDF4, size: 0x8, addend: 0x0, symName: __ZNKSt3__18ios_base5flagsB7v160006Ev, symObjAddr: 0x3780, symBinAddr: 0x100006BE0, symSize: 0x20 }
  - { offsetInCU: 0x1BE1C, offset: 0x1BE1C, size: 0x8, addend: 0x0, symName: __ZNKSt3__19basic_iosIcNS_11char_traitsIcEEE4fillB7v160006Ev, symObjAddr: 0x37A0, symBinAddr: 0x100006C00, symSize: 0x70 }
  - { offsetInCU: 0x1BE44, offset: 0x1BE44, size: 0x8, addend: 0x0, symName: __ZNKSt3__119ostreambuf_iteratorIcNS_11char_traitsIcEEE6failedB7v160006Ev, symObjAddr: 0x3810, symBinAddr: 0x100006C70, symSize: 0x20 }
  - { offsetInCU: 0x1BE6A, offset: 0x1BE6A, size: 0x8, addend: 0x0, symName: __ZNKSt3__18ios_base5widthB7v160006Ev, symObjAddr: 0x3830, symBinAddr: 0x100006C90, symSize: 0x20 }
  - { offsetInCU: 0x1BE92, offset: 0x1BE92, size: 0x8, addend: 0x0, symName: __ZNSt3__115basic_streambufIcNS_11char_traitsIcEEE5sputnB7v160006EPKcl, symObjAddr: 0x3850, symBinAddr: 0x100006CB0, symSize: 0x30 }
  - { offsetInCU: 0x1BED4, offset: 0x1BED4, size: 0x8, addend: 0x0, symName: __ZNSt3__112basic_stringIcNS_11char_traitsIcEENS_9allocatorIcEEEC1B7v160006Emc, symObjAddr: 0x3880, symBinAddr: 0x100006CE0, symSize: 0x30 }
  - { offsetInCU: 0x1BF1C, offset: 0x1BF1C, size: 0x8, addend: 0x0, symName: __ZNSt3__112basic_stringIcNS_11char_traitsIcEENS_9allocatorIcEEE4dataB7v160006Ev, symObjAddr: 0x38B0, symBinAddr: 0x100006D10, symSize: 0x30 }
  - { offsetInCU: 0x1BF42, offset: 0x1BF42, size: 0x8, addend: 0x0, symName: __ZNSt3__18ios_base5widthB7v160006El, symObjAddr: 0x38E0, symBinAddr: 0x100006D40, symSize: 0x30 }
  - { offsetInCU: 0x1BF88, offset: 0x1BF88, size: 0x8, addend: 0x0, symName: __ZNSt3__112basic_stringIcNS_11char_traitsIcEENS_9allocatorIcEEEC2B7v160006Emc, symObjAddr: 0x3910, symBinAddr: 0x100006D70, symSize: 0x50 }
  - { offsetInCU: 0x1BFD0, offset: 0x1BFD0, size: 0x8, addend: 0x0, symName: __ZNSt3__112basic_stringIcNS_11char_traitsIcEENS_9allocatorIcEEE13__get_pointerB7v160006Ev, symObjAddr: 0x3970, symBinAddr: 0x100006DD0, symSize: 0x50 }
  - { offsetInCU: 0x1BFF6, offset: 0x1BFF6, size: 0x8, addend: 0x0, symName: __ZNSt3__112basic_stringIcNS_11char_traitsIcEENS_9allocatorIcEEE18__get_long_pointerB7v160006Ev, symObjAddr: 0x39C0, symBinAddr: 0x100006E20, symSize: 0x20 }
  - { offsetInCU: 0x1C01C, offset: 0x1C01C, size: 0x8, addend: 0x0, symName: __ZNSt3__112basic_stringIcNS_11char_traitsIcEENS_9allocatorIcEEE19__get_short_pointerB7v160006Ev, symObjAddr: 0x39E0, symBinAddr: 0x100006E40, symSize: 0x30 }
  - { offsetInCU: 0x1C042, offset: 0x1C042, size: 0x8, addend: 0x0, symName: __ZNSt3__114pointer_traitsIPcE10pointer_toB7v160006ERc, symObjAddr: 0x3A10, symBinAddr: 0x100006E70, symSize: 0x10 }
  - { offsetInCU: 0x1C065, offset: 0x1C065, size: 0x8, addend: 0x0, symName: __ZNSt3__119ostreambuf_iteratorIcNS_11char_traitsIcEEEC2B7v160006ERNS_13basic_ostreamIcS2_EE, symObjAddr: 0x3A20, symBinAddr: 0x100006E80, symSize: 0x50 }
  - { offsetInCU: 0x1C09D, offset: 0x1C09D, size: 0x8, addend: 0x0, symName: __ZNKSt3__19basic_iosIcNS_11char_traitsIcEEE5rdbufB7v160006Ev, symObjAddr: 0x3A70, symBinAddr: 0x100006ED0, symSize: 0x20 }
  - { offsetInCU: 0x1C0C5, offset: 0x1C0C5, size: 0x8, addend: 0x0, symName: __ZNKSt3__18ios_base5rdbufB7v160006Ev, symObjAddr: 0x3A90, symBinAddr: 0x100006EF0, symSize: 0x20 }
  - { offsetInCU: 0x1C0EB, offset: 0x1C0EB, size: 0x8, addend: 0x0, symName: __ZNSt3__111char_traitsIcE11eq_int_typeEii, symObjAddr: 0x3AB0, symBinAddr: 0x100006F10, symSize: 0x20 }
  - { offsetInCU: 0x1C11C, offset: 0x1C11C, size: 0x8, addend: 0x0, symName: __ZNKSt3__19basic_iosIcNS_11char_traitsIcEEE5widenB7v160006Ec, symObjAddr: 0x3AD0, symBinAddr: 0x100006F30, symSize: 0x80 }
  - { offsetInCU: 0x1C18A, offset: 0x1C18A, size: 0x8, addend: 0x0, symName: __ZNKSt3__15ctypeIcE5widenB7v160006Ec, symObjAddr: 0x3B80, symBinAddr: 0x100006FE0, symSize: 0x30 }
  - { offsetInCU: 0x1C1DD, offset: 0x1C1DD, size: 0x8, addend: 0x0, symName: __ZNKSt3__113basic_istreamIcNS_11char_traitsIcEEE6sentrycvbB7v160006Ev, symObjAddr: 0x3DF0, symBinAddr: 0x100007250, symSize: 0x20 }
  - { offsetInCU: 0x1C203, offset: 0x1C203, size: 0x8, addend: 0x0, symName: __ZNSt3__112basic_stringIcNS_11char_traitsIcEENS_9allocatorIcEEE5clearB7v160006Ev, symObjAddr: 0x3E10, symBinAddr: 0x100007270, symSize: 0xA0 }
  - { offsetInCU: 0x1C22B, offset: 0x1C22B, size: 0x8, addend: 0x0, symName: __ZNSt3__115basic_streambufIcNS_11char_traitsIcEEE6sbumpcB7v160006Ev, symObjAddr: 0x3EB0, symBinAddr: 0x100007310, symSize: 0x60 }
  - { offsetInCU: 0x1C251, offset: 0x1C251, size: 0x8, addend: 0x0, symName: __ZNSt3__111char_traitsIcE12to_char_typeEi, symObjAddr: 0x3F10, symBinAddr: 0x100007370, symSize: 0x10 }
  - { offsetInCU: 0x1C274, offset: 0x1C274, size: 0x8, addend: 0x0, symName: __ZNSt3__111char_traitsIcE2eqEcc, symObjAddr: 0x3F20, symBinAddr: 0x100007380, symSize: 0x30 }
  - { offsetInCU: 0x1C2A5, offset: 0x1C2A5, size: 0x8, addend: 0x0, symName: __ZNKSt3__112basic_stringIcNS_11char_traitsIcEENS_9allocatorIcEEE4sizeB7v160006Ev, symObjAddr: 0x3F50, symBinAddr: 0x1000073B0, symSize: 0x50 }
  - { offsetInCU: 0x1C2CB, offset: 0x1C2CB, size: 0x8, addend: 0x0, symName: __ZNKSt3__112basic_stringIcNS_11char_traitsIcEENS_9allocatorIcEEE8max_sizeB7v160006Ev, symObjAddr: 0x3FA0, symBinAddr: 0x100007400, symSize: 0xA0 }
  - { offsetInCU: 0x1C31D, offset: 0x1C31D, size: 0x8, addend: 0x0, symName: __ZNSt3__18ios_base18__setstate_nothrowB7v160006Ej, symObjAddr: 0x4040, symBinAddr: 0x1000074A0, symSize: 0x50 }
  - { offsetInCU: 0x1C352, offset: 0x1C352, size: 0x8, addend: 0x0, symName: __ZNKSt3__19basic_iosIcNS_11char_traitsIcEEE10exceptionsB7v160006Ev, symObjAddr: 0x4090, symBinAddr: 0x1000074F0, symSize: 0x20 }
  - { offsetInCU: 0x1C378, offset: 0x1C378, size: 0x8, addend: 0x0, symName: __ZNSt3__111char_traitsIcE6assignERcRKc, symObjAddr: 0x40C0, symBinAddr: 0x100007520, symSize: 0x20 }
  - { offsetInCU: 0x1C3A9, offset: 0x1C3A9, size: 0x8, addend: 0x0, symName: __ZNSt3__112basic_stringIcNS_11char_traitsIcEENS_9allocatorIcEEE15__set_long_sizeB7v160006Em, symObjAddr: 0x40E0, symBinAddr: 0x100007540, symSize: 0x30 }
  - { offsetInCU: 0x1C3DE, offset: 0x1C3DE, size: 0x8, addend: 0x0, symName: __ZNSt3__112basic_stringIcNS_11char_traitsIcEENS_9allocatorIcEEE16__set_short_sizeB7v160006Em, symObjAddr: 0x4110, symBinAddr: 0x100007570, symSize: 0x50 }
  - { offsetInCU: 0x1C413, offset: 0x1C413, size: 0x8, addend: 0x0, symName: __ZNSt3__111char_traitsIcE11to_int_typeEc, symObjAddr: 0x4160, symBinAddr: 0x1000075C0, symSize: 0x10 }
  - { offsetInCU: 0x1C436, offset: 0x1C436, size: 0x8, addend: 0x0, symName: __ZNKSt3__112basic_stringIcNS_11char_traitsIcEENS_9allocatorIcEEE15__get_long_sizeB7v160006Ev, symObjAddr: 0x4170, symBinAddr: 0x1000075D0, symSize: 0x20 }
  - { offsetInCU: 0x1C45C, offset: 0x1C45C, size: 0x8, addend: 0x0, symName: __ZNKSt3__112basic_stringIcNS_11char_traitsIcEENS_9allocatorIcEEE16__get_short_sizeB7v160006Ev, symObjAddr: 0x4190, symBinAddr: 0x1000075F0, symSize: 0x30 }
  - { offsetInCU: 0x1C48C, offset: 0x1C48C, size: 0x8, addend: 0x0, symName: __ZNSt3__116allocator_traitsINS_9allocatorIcEEE8max_sizeB7v160006IS2_vEEmRKS2_, symObjAddr: 0x41C0, symBinAddr: 0x100007620, symSize: 0x20 }
  - { offsetInCU: 0x1C4BA, offset: 0x1C4BA, size: 0x8, addend: 0x0, symName: __ZNKSt3__112basic_stringIcNS_11char_traitsIcEENS_9allocatorIcEEE7__allocB7v160006Ev, symObjAddr: 0x41E0, symBinAddr: 0x100007640, symSize: 0x20 }
  - { offsetInCU: 0x1C4E0, offset: 0x1C4E0, size: 0x8, addend: 0x0, symName: __ZNSt3__114numeric_limitsImE3maxB7v160006Ev, symObjAddr: 0x4200, symBinAddr: 0x100007660, symSize: 0x10 }
  - { offsetInCU: 0x1C4F4, offset: 0x1C4F4, size: 0x8, addend: 0x0, symName: __ZNKSt3__19allocatorIcE8max_sizeB7v160006Ev, symObjAddr: 0x4210, symBinAddr: 0x100007670, symSize: 0x20 }
  - { offsetInCU: 0x1C51A, offset: 0x1C51A, size: 0x8, addend: 0x0, symName: __ZNKSt3__117__compressed_pairINS_12basic_stringIcNS_11char_traitsIcEENS_9allocatorIcEEE5__repES5_E6secondB7v160006Ev, symObjAddr: 0x4230, symBinAddr: 0x100007690, symSize: 0x20 }
  - { offsetInCU: 0x1C540, offset: 0x1C540, size: 0x8, addend: 0x0, symName: __ZNKSt3__122__compressed_pair_elemINS_9allocatorIcEELi1ELb1EE5__getB7v160006Ev, symObjAddr: 0x4250, symBinAddr: 0x1000076B0, symSize: 0x10 }
  - { offsetInCU: 0x1C566, offset: 0x1C566, size: 0x8, addend: 0x0, symName: __ZNSt3__123__libcpp_numeric_limitsImLb1EE3maxB7v160006Ev, symObjAddr: 0x4260, symBinAddr: 0x1000076C0, symSize: 0x10 }
  - { offsetInCU: 0x1C57A, offset: 0x1C57A, size: 0x8, addend: 0x0, symName: __ZNKSt3__18ios_base10exceptionsB7v160006Ev, symObjAddr: 0x4270, symBinAddr: 0x1000076D0, symSize: 0x20 }
  - { offsetInCU: 0x1C5A2, offset: 0x1C5A2, size: 0x8, addend: 0x0, symName: __ZNKSt3__19basic_iosIcNS_11char_traitsIcEEE4failB7v160006Ev, symObjAddr: 0x4290, symBinAddr: 0x1000076F0, symSize: 0x20 }
  - { offsetInCU: 0x1C5C8, offset: 0x1C5C8, size: 0x8, addend: 0x0, symName: __ZNKSt3__18ios_base4failB7v160006Ev, symObjAddr: 0x42B0, symBinAddr: 0x100007710, symSize: 0x20 }
  - { offsetInCU: 0x1C5F0, offset: 0x1C5F0, size: 0x8, addend: 0x0, symName: __ZNSt3__19allocatorIcEC1B7v160006Ev, symObjAddr: 0x42D0, symBinAddr: 0x100007730, symSize: 0x20 }
  - { offsetInCU: 0x1C61A, offset: 0x1C61A, size: 0x8, addend: 0x0, symName: __ZNSt3__16vectorIN3glm3vecILi3EfLNS1_9qualifierE0EEENS_9allocatorIS4_EEE9__end_capB7v160006Ev, symObjAddr: 0x42F0, symBinAddr: 0x100007750, symSize: 0x20 }
  - { offsetInCU: 0x1C640, offset: 0x1C640, size: 0x8, addend: 0x0, symName: __ZNSt3__16vectorIN3glm3vecILi3EfLNS1_9qualifierE0EEENS_9allocatorIS4_EEE22__construct_one_at_endB7v160006IJRKS4_EEEvDpOT_, symObjAddr: 0x4310, symBinAddr: 0x100007770, symSize: 0x90 }
  - { offsetInCU: 0x1C68F, offset: 0x1C68F, size: 0x8, addend: 0x0, symName: __ZNSt3__16vectorIN3glm3vecILi3EfLNS1_9qualifierE0EEENS_9allocatorIS4_EEE21__push_back_slow_pathIRKS4_EEvOT_, symObjAddr: 0x43A0, symBinAddr: 0x100007800, symSize: 0xD0 }
  - { offsetInCU: 0x1C6ED, offset: 0x1C6ED, size: 0x8, addend: 0x0, symName: __ZNSt3__117__compressed_pairIPN3glm3vecILi3EfLNS1_9qualifierE0EEENS_9allocatorIS4_EEE5firstB7v160006Ev, symObjAddr: 0x4470, symBinAddr: 0x1000078D0, symSize: 0x20 }
  - { offsetInCU: 0x1C713, offset: 0x1C713, size: 0x8, addend: 0x0, symName: __ZNSt3__122__compressed_pair_elemIPN3glm3vecILi3EfLNS1_9qualifierE0EEELi0ELb0EE5__getB7v160006Ev, symObjAddr: 0x4490, symBinAddr: 0x1000078F0, symSize: 0x10 }
  - { offsetInCU: 0x1C752, offset: 0x1C752, size: 0x8, addend: 0x0, symName: __ZNSt3__16vectorIN3glm3vecILi3EfLNS1_9qualifierE0EEENS_9allocatorIS4_EEE21_ConstructTransactionC1B7v160006ERS7_m, symObjAddr: 0x44A0, symBinAddr: 0x100007900, symSize: 0x30 }
  - { offsetInCU: 0x1C79A, offset: 0x1C79A, size: 0x8, addend: 0x0, symName: __ZNSt3__116allocator_traitsINS_9allocatorIN3glm3vecILi3EfLNS2_9qualifierE0EEEEEE9constructB7v160006IS5_JRKS5_EvEEvRS6_PT_DpOT0_, symObjAddr: 0x44D0, symBinAddr: 0x100007930, symSize: 0x30 }
  - { offsetInCU: 0x1C7F1, offset: 0x1C7F1, size: 0x8, addend: 0x0, symName: __ZNSt3__16vectorIN3glm3vecILi3EfLNS1_9qualifierE0EEENS_9allocatorIS4_EEE21_ConstructTransactionD1B7v160006Ev, symObjAddr: 0x4500, symBinAddr: 0x100007960, symSize: 0x20 }
  - { offsetInCU: 0x1C81B, offset: 0x1C81B, size: 0x8, addend: 0x0, symName: __ZNSt3__16vectorIN3glm3vecILi3EfLNS1_9qualifierE0EEENS_9allocatorIS4_EEE21_ConstructTransactionC2B7v160006ERS7_m, symObjAddr: 0x4520, symBinAddr: 0x100007980, symSize: 0x40 }
  - { offsetInCU: 0x1C863, offset: 0x1C863, size: 0x8, addend: 0x0, symName: __ZNSt3__19allocatorIN3glm3vecILi3EfLNS1_9qualifierE0EEEE9constructB7v160006IS4_JRKS4_EEEvPT_DpOT0_, symObjAddr: 0x4560, symBinAddr: 0x1000079C0, symSize: 0x30 }
  - { offsetInCU: 0x1C8B9, offset: 0x1C8B9, size: 0x8, addend: 0x0, symName: __ZNSt3__16vectorIN3glm3vecILi3EfLNS1_9qualifierE0EEENS_9allocatorIS4_EEE21_ConstructTransactionD2B7v160006Ev, symObjAddr: 0x4590, symBinAddr: 0x1000079F0, symSize: 0x20 }
  - { offsetInCU: 0x1C8E3, offset: 0x1C8E3, size: 0x8, addend: 0x0, symName: __ZNKSt3__16vectorIN3glm3vecILi3EfLNS1_9qualifierE0EEENS_9allocatorIS4_EEE11__recommendB7v160006Em, symObjAddr: 0x45B0, symBinAddr: 0x100007A10, symSize: 0xA0 }
  - { offsetInCU: 0x1C938, offset: 0x1C938, size: 0x8, addend: 0x0, symName: __ZNSt3__114__split_bufferIN3glm3vecILi3EfLNS1_9qualifierE0EEERNS_9allocatorIS4_EEEC1EmmS7_, symObjAddr: 0x4650, symBinAddr: 0x100007AB0, symSize: 0x40 }
  - { offsetInCU: 0x1C98E, offset: 0x1C98E, size: 0x8, addend: 0x0, symName: __ZNSt3__114__split_bufferIN3glm3vecILi3EfLNS1_9qualifierE0EEERNS_9allocatorIS4_EEED1Ev, symObjAddr: 0x47C0, symBinAddr: 0x100007C20, symSize: 0x20 }
  - { offsetInCU: 0x1C9BA, offset: 0x1C9BA, size: 0x8, addend: 0x0, symName: __ZNKSt3__16vectorIN3glm3vecILi3EfLNS1_9qualifierE0EEENS_9allocatorIS4_EEE8max_sizeEv, symObjAddr: 0x47E0, symBinAddr: 0x100007C40, symSize: 0x60 }
  - { offsetInCU: 0x1C9E2, offset: 0x1C9E2, size: 0x8, addend: 0x0, symName: __ZNKSt3__16vectorIN3glm3vecILi3EfLNS1_9qualifierE0EEENS_9allocatorIS4_EEE20__throw_length_errorB7v160006Ev, symObjAddr: 0x4840, symBinAddr: 0x100007CA0, symSize: 0x20 }
  - { offsetInCU: 0x1CA12, offset: 0x1CA12, size: 0x8, addend: 0x0, symName: __ZNSt3__116allocator_traitsINS_9allocatorIN3glm3vecILi3EfLNS2_9qualifierE0EEEEEE8max_sizeB7v160006IS6_vEEmRKS6_, symObjAddr: 0x48C0, symBinAddr: 0x100007D20, symSize: 0x20 }
  - { offsetInCU: 0x1CA40, offset: 0x1CA40, size: 0x8, addend: 0x0, symName: __ZNKSt3__16vectorIN3glm3vecILi3EfLNS1_9qualifierE0EEENS_9allocatorIS4_EEE7__allocB7v160006Ev, symObjAddr: 0x48E0, symBinAddr: 0x100007D40, symSize: 0x20 }
  - { offsetInCU: 0x1CA66, offset: 0x1CA66, size: 0x8, addend: 0x0, symName: __ZNSt3__114numeric_limitsIlE3maxB7v160006Ev, symObjAddr: 0x4900, symBinAddr: 0x100007D60, symSize: 0x10 }
  - { offsetInCU: 0x1CA8E, offset: 0x1CA8E, size: 0x8, addend: 0x0, symName: __ZNKSt3__16__lessImmEclB7v160006ERKmS3_, symObjAddr: 0x4960, symBinAddr: 0x100007DC0, symSize: 0x30 }
  - { offsetInCU: 0x1CAD0, offset: 0x1CAD0, size: 0x8, addend: 0x0, symName: __ZNKSt3__19allocatorIN3glm3vecILi3EfLNS1_9qualifierE0EEEE8max_sizeB7v160006Ev, symObjAddr: 0x4990, symBinAddr: 0x100007DF0, symSize: 0x20 }
  - { offsetInCU: 0x1CAF6, offset: 0x1CAF6, size: 0x8, addend: 0x0, symName: __ZNKSt3__117__compressed_pairIPN3glm3vecILi3EfLNS1_9qualifierE0EEENS_9allocatorIS4_EEE6secondB7v160006Ev, symObjAddr: 0x49B0, symBinAddr: 0x100007E10, symSize: 0x20 }
  - { offsetInCU: 0x1CB1C, offset: 0x1CB1C, size: 0x8, addend: 0x0, symName: __ZNKSt3__122__compressed_pair_elemINS_9allocatorIN3glm3vecILi3EfLNS2_9qualifierE0EEEEELi1ELb1EE5__getB7v160006Ev, symObjAddr: 0x49D0, symBinAddr: 0x100007E30, symSize: 0x10 }
  - { offsetInCU: 0x1CB42, offset: 0x1CB42, size: 0x8, addend: 0x0, symName: __ZNSt3__123__libcpp_numeric_limitsIlLb1EE3maxB7v160006Ev, symObjAddr: 0x49E0, symBinAddr: 0x100007E40, symSize: 0x10 }
  - { offsetInCU: 0x1CB56, offset: 0x1CB56, size: 0x8, addend: 0x0, symName: __ZNSt12length_errorC1B7v160006EPKc, symObjAddr: 0x4A60, symBinAddr: 0x100007EC0, symSize: 0x30 }
  - { offsetInCU: 0x1CB8E, offset: 0x1CB8E, size: 0x8, addend: 0x0, symName: __ZNSt12length_errorC2B7v160006EPKc, symObjAddr: 0x4A90, symBinAddr: 0x100007EF0, symSize: 0x40 }
  - { offsetInCU: 0x1CBC6, offset: 0x1CBC6, size: 0x8, addend: 0x0, symName: __ZNSt3__114__split_bufferIN3glm3vecILi3EfLNS1_9qualifierE0EEERNS_9allocatorIS4_EEEC2EmmS7_, symObjAddr: 0x4B20, symBinAddr: 0x100007F80, symSize: 0xC0 }
  - { offsetInCU: 0x1CC39, offset: 0x1CC39, size: 0x8, addend: 0x0, symName: __ZNSt3__117__compressed_pairIPN3glm3vecILi3EfLNS1_9qualifierE0EEERNS_9allocatorIS4_EEEC1B7v160006IDnS8_EEOT_OT0_, symObjAddr: 0x4BE0, symBinAddr: 0x100008040, symSize: 0x30 }
  - { offsetInCU: 0x1CC91, offset: 0x1CC91, size: 0x8, addend: 0x0, symName: __ZNSt3__114__split_bufferIN3glm3vecILi3EfLNS1_9qualifierE0EEERNS_9allocatorIS4_EEE7__allocB7v160006Ev, symObjAddr: 0x4C50, symBinAddr: 0x1000080B0, symSize: 0x20 }
  - { offsetInCU: 0x1CCB7, offset: 0x1CCB7, size: 0x8, addend: 0x0, symName: __ZNSt3__114__split_bufferIN3glm3vecILi3EfLNS1_9qualifierE0EEERNS_9allocatorIS4_EEE9__end_capB7v160006Ev, symObjAddr: 0x4C70, symBinAddr: 0x1000080D0, symSize: 0x20 }
  - { offsetInCU: 0x1CCDD, offset: 0x1CCDD, size: 0x8, addend: 0x0, symName: __ZNSt3__117__compressed_pairIPN3glm3vecILi3EfLNS1_9qualifierE0EEERNS_9allocatorIS4_EEEC2B7v160006IDnS8_EEOT_OT0_, symObjAddr: 0x4C90, symBinAddr: 0x1000080F0, symSize: 0x40 }
  - { offsetInCU: 0x1CD35, offset: 0x1CD35, size: 0x8, addend: 0x0, symName: __ZNSt3__122__compressed_pair_elemIRNS_9allocatorIN3glm3vecILi3EfLNS2_9qualifierE0EEEEELi1ELb0EEC2B7v160006IS7_vEEOT_, symObjAddr: 0x4CD0, symBinAddr: 0x100008130, symSize: 0x20 }
  - { offsetInCU: 0x1CD77, offset: 0x1CD77, size: 0x8, addend: 0x0, symName: __ZNSt3__19allocatorIN3glm3vecILi3EfLNS1_9qualifierE0EEEE8allocateB7v160006Em, symObjAddr: 0x4CF0, symBinAddr: 0x100008150, symSize: 0x50 }
  - { offsetInCU: 0x1CDAB, offset: 0x1CDAB, size: 0x8, addend: 0x0, symName: __ZNSt3__117__compressed_pairIPN3glm3vecILi3EfLNS1_9qualifierE0EEERNS_9allocatorIS4_EEE6secondB7v160006Ev, symObjAddr: 0x4E30, symBinAddr: 0x100008290, symSize: 0x20 }
  - { offsetInCU: 0x1CDD1, offset: 0x1CDD1, size: 0x8, addend: 0x0, symName: __ZNSt3__122__compressed_pair_elemIRNS_9allocatorIN3glm3vecILi3EfLNS2_9qualifierE0EEEEELi1ELb0EE5__getB7v160006Ev, symObjAddr: 0x4E50, symBinAddr: 0x1000082B0, symSize: 0x20 }
  - { offsetInCU: 0x1CDF7, offset: 0x1CDF7, size: 0x8, addend: 0x0, symName: __ZNSt3__117__compressed_pairIPN3glm3vecILi3EfLNS1_9qualifierE0EEERNS_9allocatorIS4_EEE5firstB7v160006Ev, symObjAddr: 0x4E70, symBinAddr: 0x1000082D0, symSize: 0x20 }
  - { offsetInCU: 0x1CE1D, offset: 0x1CE1D, size: 0x8, addend: 0x0, symName: __ZNSt3__116reverse_iteratorIPN3glm3vecILi3EfLNS1_9qualifierE0EEEEC1B7v160006ES5_, symObjAddr: 0x4F00, symBinAddr: 0x100008360, symSize: 0x30 }
  - { offsetInCU: 0x1CE55, offset: 0x1CE55, size: 0x8, addend: 0x0, symName: __ZNKSt3__116reverse_iteratorIPN3glm3vecILi3EfLNS1_9qualifierE0EEEE4baseB7v160006Ev, symObjAddr: 0x4F30, symBinAddr: 0x100008390, symSize: 0x20 }
  - { offsetInCU: 0x1CE7B, offset: 0x1CE7B, size: 0x8, addend: 0x0, symName: __ZNKSt3__16vectorIN3glm3vecILi3EfLNS1_9qualifierE0EEENS_9allocatorIS4_EEE14__annotate_newB7v160006Em, symObjAddr: 0x4F90, symBinAddr: 0x1000083F0, symSize: 0xA0 }
  - { offsetInCU: 0x1CED3, offset: 0x1CED3, size: 0x8, addend: 0x0, symName: __ZNKSt3__111__move_loopINS_17_ClassicAlgPolicyEEclB7v160006INS_16reverse_iteratorIPN3glm3vecILi3EfLNS5_9qualifierE0EEEEESA_SA_EENS_4pairIT_T1_EESC_T0_SD_, symObjAddr: 0x5480, symBinAddr: 0x1000088E0, symSize: 0xA0 }
  - { offsetInCU: 0x1CF43, offset: 0x1CF43, size: 0x8, addend: 0x0, symName: __ZNSt3__18_IterOpsINS_17_ClassicAlgPolicyEE11__iter_moveB7v160006IRNS_16reverse_iteratorIPN3glm3vecILi3EfLNS5_9qualifierE0EEEEEEENS_9enable_ifIXsr12is_referenceIDTdeclsr3stdE7declvalIRT_EEEEE5valueEDTclsr3stdE4movedeclsr3stdE7declvalISE_EEEEE4typeEOSD_, symObjAddr: 0x56A0, symBinAddr: 0x100008B00, symSize: 0x20 }
  - { offsetInCU: 0x1CF6F, offset: 0x1CF6F, size: 0x8, addend: 0x0, symName: __ZNKSt3__116reverse_iteratorIPN3glm3vecILi3EfLNS1_9qualifierE0EEEEdeB7v160006Ev, symObjAddr: 0x56C0, symBinAddr: 0x100008B20, symSize: 0x30 }
  - { offsetInCU: 0x1CFA3, offset: 0x1CFA3, size: 0x8, addend: 0x0, symName: __ZNSt3__116reverse_iteratorIPN3glm3vecILi3EfLNS1_9qualifierE0EEEEppB7v160006Ev, symObjAddr: 0x56F0, symBinAddr: 0x100008B50, symSize: 0x20 }
  - { offsetInCU: 0x1CFC9, offset: 0x1CFC9, size: 0x8, addend: 0x0, symName: __ZNSt3__18_IterOpsINS_17_ClassicAlgPolicyEE25__validate_iter_referenceB7v160006IRNS_16reverse_iteratorIPN3glm3vecILi3EfLNS5_9qualifierE0EEEEEEEvv, symObjAddr: 0x5710, symBinAddr: 0x100008B70, symSize: 0x10 }
  - { offsetInCU: 0x1CFE7, offset: 0x1CFE7, size: 0x8, addend: 0x0, symName: __ZNSt3__118__unwrap_iter_implINS_16reverse_iteratorIPN3glm3vecILi3EfLNS2_9qualifierE0EEEEELb0EE8__unwrapB7v160006ES7_, symObjAddr: 0x5720, symBinAddr: 0x100008B80, symSize: 0x20 }
  - { offsetInCU: 0x1D00F, offset: 0x1D00F, size: 0x8, addend: 0x0, symName: __ZNSt3__14pairINS_16reverse_iteratorIPN3glm3vecILi3EfLNS2_9qualifierE0EEEEES7_EC1B7v160006IS7_S7_LPv0EEEOT_OT0_, symObjAddr: 0x5740, symBinAddr: 0x100008BA0, symSize: 0x30 }
  - { offsetInCU: 0x1D06D, offset: 0x1D06D, size: 0x8, addend: 0x0, symName: __ZNSt3__14pairINS_16reverse_iteratorIPN3glm3vecILi3EfLNS2_9qualifierE0EEEEES7_EC2B7v160006IS7_S7_LPv0EEEOT_OT0_, symObjAddr: 0x5770, symBinAddr: 0x100008BD0, symSize: 0x40 }
  - { offsetInCU: 0x1D0CB, offset: 0x1D0CB, size: 0x8, addend: 0x0, symName: __ZNSt3__118__unwrap_iter_implINS_16reverse_iteratorIPN3glm3vecILi3EfLNS2_9qualifierE0EEEEELb0EE8__rewrapB7v160006ES7_S7_, symObjAddr: 0x57B0, symBinAddr: 0x100008C10, symSize: 0x30 }
  - { offsetInCU: 0x1D0F9, offset: 0x1D0F9, size: 0x8, addend: 0x0, symName: __ZNSt3__116reverse_iteratorIPN3glm3vecILi3EfLNS1_9qualifierE0EEEEC2B7v160006ES5_, symObjAddr: 0x57E0, symBinAddr: 0x100008C40, symSize: 0x30 }
  - { offsetInCU: 0x1D131, offset: 0x1D131, size: 0x8, addend: 0x0, symName: __ZNSt3__114__split_bufferIN3glm3vecILi3EfLNS1_9qualifierE0EEERNS_9allocatorIS4_EEED2Ev, symObjAddr: 0x5810, symBinAddr: 0x100008C70, symSize: 0x70 }
  - { offsetInCU: 0x1D15D, offset: 0x1D15D, size: 0x8, addend: 0x0, symName: __ZNSt3__114__split_bufferIN3glm3vecILi3EfLNS1_9qualifierE0EEERNS_9allocatorIS4_EEE5clearB7v160006Ev, symObjAddr: 0x5880, symBinAddr: 0x100008CE0, symSize: 0x20 }
  - { offsetInCU: 0x1D183, offset: 0x1D183, size: 0x8, addend: 0x0, symName: __ZNKSt3__114__split_bufferIN3glm3vecILi3EfLNS1_9qualifierE0EEERNS_9allocatorIS4_EEE8capacityB7v160006Ev, symObjAddr: 0x58A0, symBinAddr: 0x100008D00, symSize: 0x40 }
  - { offsetInCU: 0x1D1A9, offset: 0x1D1A9, size: 0x8, addend: 0x0, symName: __ZNSt3__114__split_bufferIN3glm3vecILi3EfLNS1_9qualifierE0EEERNS_9allocatorIS4_EEE17__destruct_at_endB7v160006EPS4_, symObjAddr: 0x58E0, symBinAddr: 0x100008D40, symSize: 0x30 }
  - { offsetInCU: 0x1D1DD, offset: 0x1D1DD, size: 0x8, addend: 0x0, symName: __ZNSt3__114__split_bufferIN3glm3vecILi3EfLNS1_9qualifierE0EEERNS_9allocatorIS4_EEE17__destruct_at_endB7v160006EPS4_NS_17integral_constantIbLb0EEE, symObjAddr: 0x5910, symBinAddr: 0x100008D70, symSize: 0x80 }
  - { offsetInCU: 0x1D21E, offset: 0x1D21E, size: 0x8, addend: 0x0, symName: __ZNKSt3__114__split_bufferIN3glm3vecILi3EfLNS1_9qualifierE0EEERNS_9allocatorIS4_EEE9__end_capB7v160006Ev, symObjAddr: 0x5990, symBinAddr: 0x100008DF0, symSize: 0x20 }
  - { offsetInCU: 0x1D244, offset: 0x1D244, size: 0x8, addend: 0x0, symName: __ZNKSt3__117__compressed_pairIPN3glm3vecILi3EfLNS1_9qualifierE0EEERNS_9allocatorIS4_EEE5firstB7v160006Ev, symObjAddr: 0x59B0, symBinAddr: 0x100008E10, symSize: 0x20 }
  - { offsetInCU: 0x1D26A, offset: 0x1D26A, size: 0x8, addend: 0x0, symName: __ZNSt3__16vectorIN3glm3vecILi2EfLNS1_9qualifierE0EEENS_9allocatorIS4_EEE9__end_capB7v160006Ev, symObjAddr: 0x59D0, symBinAddr: 0x100008E30, symSize: 0x20 }
  - { offsetInCU: 0x1D290, offset: 0x1D290, size: 0x8, addend: 0x0, symName: __ZNSt3__16vectorIN3glm3vecILi2EfLNS1_9qualifierE0EEENS_9allocatorIS4_EEE22__construct_one_at_endB7v160006IJRKS4_EEEvDpOT_, symObjAddr: 0x59F0, symBinAddr: 0x100008E50, symSize: 0x90 }
  - { offsetInCU: 0x1D2DF, offset: 0x1D2DF, size: 0x8, addend: 0x0, symName: __ZNSt3__16vectorIN3glm3vecILi2EfLNS1_9qualifierE0EEENS_9allocatorIS4_EEE21__push_back_slow_pathIRKS4_EEvOT_, symObjAddr: 0x5A80, symBinAddr: 0x100008EE0, symSize: 0xD0 }
  - { offsetInCU: 0x1D33D, offset: 0x1D33D, size: 0x8, addend: 0x0, symName: __ZNSt3__117__compressed_pairIPN3glm3vecILi2EfLNS1_9qualifierE0EEENS_9allocatorIS4_EEE5firstB7v160006Ev, symObjAddr: 0x5B50, symBinAddr: 0x100008FB0, symSize: 0x20 }
  - { offsetInCU: 0x1D363, offset: 0x1D363, size: 0x8, addend: 0x0, symName: __ZNSt3__122__compressed_pair_elemIPN3glm3vecILi2EfLNS1_9qualifierE0EEELi0ELb0EE5__getB7v160006Ev, symObjAddr: 0x5B70, symBinAddr: 0x100008FD0, symSize: 0x10 }
  - { offsetInCU: 0x1D3A2, offset: 0x1D3A2, size: 0x8, addend: 0x0, symName: __ZNSt3__16vectorIN3glm3vecILi2EfLNS1_9qualifierE0EEENS_9allocatorIS4_EEE21_ConstructTransactionC1B7v160006ERS7_m, symObjAddr: 0x5B80, symBinAddr: 0x100008FE0, symSize: 0x30 }
  - { offsetInCU: 0x1D3EA, offset: 0x1D3EA, size: 0x8, addend: 0x0, symName: __ZNSt3__116allocator_traitsINS_9allocatorIN3glm3vecILi2EfLNS2_9qualifierE0EEEEEE9constructB7v160006IS5_JRKS5_EvEEvRS6_PT_DpOT0_, symObjAddr: 0x5BB0, symBinAddr: 0x100009010, symSize: 0x30 }
  - { offsetInCU: 0x1D441, offset: 0x1D441, size: 0x8, addend: 0x0, symName: __ZNSt3__16vectorIN3glm3vecILi2EfLNS1_9qualifierE0EEENS_9allocatorIS4_EEE21_ConstructTransactionD1B7v160006Ev, symObjAddr: 0x5BE0, symBinAddr: 0x100009040, symSize: 0x20 }
  - { offsetInCU: 0x1D46B, offset: 0x1D46B, size: 0x8, addend: 0x0, symName: __ZNSt3__16vectorIN3glm3vecILi2EfLNS1_9qualifierE0EEENS_9allocatorIS4_EEE21_ConstructTransactionC2B7v160006ERS7_m, symObjAddr: 0x5C00, symBinAddr: 0x100009060, symSize: 0x40 }
  - { offsetInCU: 0x1D4B3, offset: 0x1D4B3, size: 0x8, addend: 0x0, symName: __ZNSt3__19allocatorIN3glm3vecILi2EfLNS1_9qualifierE0EEEE9constructB7v160006IS4_JRKS4_EEEvPT_DpOT0_, symObjAddr: 0x5C40, symBinAddr: 0x1000090A0, symSize: 0x20 }
  - { offsetInCU: 0x1D509, offset: 0x1D509, size: 0x8, addend: 0x0, symName: __ZNSt3__16vectorIN3glm3vecILi2EfLNS1_9qualifierE0EEENS_9allocatorIS4_EEE21_ConstructTransactionD2B7v160006Ev, symObjAddr: 0x5C60, symBinAddr: 0x1000090C0, symSize: 0x20 }
  - { offsetInCU: 0x1D533, offset: 0x1D533, size: 0x8, addend: 0x0, symName: __ZNKSt3__16vectorIN3glm3vecILi2EfLNS1_9qualifierE0EEENS_9allocatorIS4_EEE11__recommendB7v160006Em, symObjAddr: 0x5C80, symBinAddr: 0x1000090E0, symSize: 0xA0 }
  - { offsetInCU: 0x1D588, offset: 0x1D588, size: 0x8, addend: 0x0, symName: __ZNSt3__114__split_bufferIN3glm3vecILi2EfLNS1_9qualifierE0EEERNS_9allocatorIS4_EEEC1EmmS7_, symObjAddr: 0x5D20, symBinAddr: 0x100009180, symSize: 0x40 }
  - { offsetInCU: 0x1D5DE, offset: 0x1D5DE, size: 0x8, addend: 0x0, symName: __ZNSt3__114__split_bufferIN3glm3vecILi2EfLNS1_9qualifierE0EEERNS_9allocatorIS4_EEED1Ev, symObjAddr: 0x5E90, symBinAddr: 0x1000092F0, symSize: 0x20 }
  - { offsetInCU: 0x1D60A, offset: 0x1D60A, size: 0x8, addend: 0x0, symName: __ZNKSt3__16vectorIN3glm3vecILi2EfLNS1_9qualifierE0EEENS_9allocatorIS4_EEE8max_sizeEv, symObjAddr: 0x5EB0, symBinAddr: 0x100009310, symSize: 0x60 }
  - { offsetInCU: 0x1D632, offset: 0x1D632, size: 0x8, addend: 0x0, symName: __ZNKSt3__16vectorIN3glm3vecILi2EfLNS1_9qualifierE0EEENS_9allocatorIS4_EEE20__throw_length_errorB7v160006Ev, symObjAddr: 0x5F10, symBinAddr: 0x100009370, symSize: 0x20 }
  - { offsetInCU: 0x1D662, offset: 0x1D662, size: 0x8, addend: 0x0, symName: __ZNSt3__116allocator_traitsINS_9allocatorIN3glm3vecILi2EfLNS2_9qualifierE0EEEEEE8max_sizeB7v160006IS6_vEEmRKS6_, symObjAddr: 0x5F30, symBinAddr: 0x100009390, symSize: 0x20 }
  - { offsetInCU: 0x1D690, offset: 0x1D690, size: 0x8, addend: 0x0, symName: __ZNKSt3__16vectorIN3glm3vecILi2EfLNS1_9qualifierE0EEENS_9allocatorIS4_EEE7__allocB7v160006Ev, symObjAddr: 0x5F50, symBinAddr: 0x1000093B0, symSize: 0x20 }
  - { offsetInCU: 0x1D6B6, offset: 0x1D6B6, size: 0x8, addend: 0x0, symName: __ZNKSt3__19allocatorIN3glm3vecILi2EfLNS1_9qualifierE0EEEE8max_sizeB7v160006Ev, symObjAddr: 0x5F70, symBinAddr: 0x1000093D0, symSize: 0x20 }
  - { offsetInCU: 0x1D6DC, offset: 0x1D6DC, size: 0x8, addend: 0x0, symName: __ZNKSt3__117__compressed_pairIPN3glm3vecILi2EfLNS1_9qualifierE0EEENS_9allocatorIS4_EEE6secondB7v160006Ev, symObjAddr: 0x5F90, symBinAddr: 0x1000093F0, symSize: 0x20 }
  - { offsetInCU: 0x1D702, offset: 0x1D702, size: 0x8, addend: 0x0, symName: __ZNKSt3__122__compressed_pair_elemINS_9allocatorIN3glm3vecILi2EfLNS2_9qualifierE0EEEEELi1ELb1EE5__getB7v160006Ev, symObjAddr: 0x5FB0, symBinAddr: 0x100009410, symSize: 0x10 }
  - { offsetInCU: 0x1D728, offset: 0x1D728, size: 0x8, addend: 0x0, symName: __ZNSt3__114__split_bufferIN3glm3vecILi2EfLNS1_9qualifierE0EEERNS_9allocatorIS4_EEEC2EmmS7_, symObjAddr: 0x5FC0, symBinAddr: 0x100009420, symSize: 0xD0 }
  - { offsetInCU: 0x1D79B, offset: 0x1D79B, size: 0x8, addend: 0x0, symName: __ZNSt3__117__compressed_pairIPN3glm3vecILi2EfLNS1_9qualifierE0EEERNS_9allocatorIS4_EEEC1B7v160006IDnS8_EEOT_OT0_, symObjAddr: 0x6090, symBinAddr: 0x1000094F0, symSize: 0x30 }
  - { offsetInCU: 0x1D7F3, offset: 0x1D7F3, size: 0x8, addend: 0x0, symName: __ZNSt3__114__split_bufferIN3glm3vecILi2EfLNS1_9qualifierE0EEERNS_9allocatorIS4_EEE7__allocB7v160006Ev, symObjAddr: 0x6100, symBinAddr: 0x100009560, symSize: 0x20 }
  - { offsetInCU: 0x1D819, offset: 0x1D819, size: 0x8, addend: 0x0, symName: __ZNSt3__114__split_bufferIN3glm3vecILi2EfLNS1_9qualifierE0EEERNS_9allocatorIS4_EEE9__end_capB7v160006Ev, symObjAddr: 0x6120, symBinAddr: 0x100009580, symSize: 0x20 }
  - { offsetInCU: 0x1D83F, offset: 0x1D83F, size: 0x8, addend: 0x0, symName: __ZNSt3__117__compressed_pairIPN3glm3vecILi2EfLNS1_9qualifierE0EEERNS_9allocatorIS4_EEEC2B7v160006IDnS8_EEOT_OT0_, symObjAddr: 0x6140, symBinAddr: 0x1000095A0, symSize: 0x40 }
  - { offsetInCU: 0x1D897, offset: 0x1D897, size: 0x8, addend: 0x0, symName: __ZNSt3__122__compressed_pair_elemIRNS_9allocatorIN3glm3vecILi2EfLNS2_9qualifierE0EEEEELi1ELb0EEC2B7v160006IS7_vEEOT_, symObjAddr: 0x6180, symBinAddr: 0x1000095E0, symSize: 0x20 }
  - { offsetInCU: 0x1D8D9, offset: 0x1D8D9, size: 0x8, addend: 0x0, symName: __ZNSt3__19allocatorIN3glm3vecILi2EfLNS1_9qualifierE0EEEE8allocateB7v160006Em, symObjAddr: 0x61A0, symBinAddr: 0x100009600, symSize: 0x50 }
  - { offsetInCU: 0x1D90D, offset: 0x1D90D, size: 0x8, addend: 0x0, symName: __ZNSt3__117__compressed_pairIPN3glm3vecILi2EfLNS1_9qualifierE0EEERNS_9allocatorIS4_EEE6secondB7v160006Ev, symObjAddr: 0x61F0, symBinAddr: 0x100009650, symSize: 0x20 }
  - { offsetInCU: 0x1D933, offset: 0x1D933, size: 0x8, addend: 0x0, symName: __ZNSt3__122__compressed_pair_elemIRNS_9allocatorIN3glm3vecILi2EfLNS2_9qualifierE0EEEEELi1ELb0EE5__getB7v160006Ev, symObjAddr: 0x6210, symBinAddr: 0x100009670, symSize: 0x20 }
  - { offsetInCU: 0x1D959, offset: 0x1D959, size: 0x8, addend: 0x0, symName: __ZNSt3__117__compressed_pairIPN3glm3vecILi2EfLNS1_9qualifierE0EEERNS_9allocatorIS4_EEE5firstB7v160006Ev, symObjAddr: 0x6230, symBinAddr: 0x100009690, symSize: 0x20 }
  - { offsetInCU: 0x1D97F, offset: 0x1D97F, size: 0x8, addend: 0x0, symName: __ZNSt3__116reverse_iteratorIPN3glm3vecILi2EfLNS1_9qualifierE0EEEEC1B7v160006ES5_, symObjAddr: 0x62C0, symBinAddr: 0x100009720, symSize: 0x30 }
  - { offsetInCU: 0x1D9B7, offset: 0x1D9B7, size: 0x8, addend: 0x0, symName: __ZNKSt3__116reverse_iteratorIPN3glm3vecILi2EfLNS1_9qualifierE0EEEE4baseB7v160006Ev, symObjAddr: 0x62F0, symBinAddr: 0x100009750, symSize: 0x20 }
  - { offsetInCU: 0x1D9DD, offset: 0x1D9DD, size: 0x8, addend: 0x0, symName: __ZNKSt3__16vectorIN3glm3vecILi2EfLNS1_9qualifierE0EEENS_9allocatorIS4_EEE14__annotate_newB7v160006Em, symObjAddr: 0x6350, symBinAddr: 0x1000097B0, symSize: 0xB0 }
  - { offsetInCU: 0x1DA2B, offset: 0x1DA2B, size: 0x8, addend: 0x0, symName: __ZNKSt3__111__move_loopINS_17_ClassicAlgPolicyEEclB7v160006INS_16reverse_iteratorIPN3glm3vecILi2EfLNS5_9qualifierE0EEEEESA_SA_EENS_4pairIT_T1_EESC_T0_SD_, symObjAddr: 0x6850, symBinAddr: 0x100009CB0, symSize: 0xA0 }
  - { offsetInCU: 0x1DA9B, offset: 0x1DA9B, size: 0x8, addend: 0x0, symName: __ZNSt3__18_IterOpsINS_17_ClassicAlgPolicyEE11__iter_moveB7v160006IRNS_16reverse_iteratorIPN3glm3vecILi2EfLNS5_9qualifierE0EEEEEEENS_9enable_ifIXsr12is_referenceIDTdeclsr3stdE7declvalIRT_EEEEE5valueEDTclsr3stdE4movedeclsr3stdE7declvalISE_EEEEE4typeEOSD_, symObjAddr: 0x6A70, symBinAddr: 0x100009ED0, symSize: 0x20 }
  - { offsetInCU: 0x1DAC7, offset: 0x1DAC7, size: 0x8, addend: 0x0, symName: __ZNKSt3__116reverse_iteratorIPN3glm3vecILi2EfLNS1_9qualifierE0EEEEdeB7v160006Ev, symObjAddr: 0x6A90, symBinAddr: 0x100009EF0, symSize: 0x30 }
  - { offsetInCU: 0x1DAFB, offset: 0x1DAFB, size: 0x8, addend: 0x0, symName: __ZNSt3__116reverse_iteratorIPN3glm3vecILi2EfLNS1_9qualifierE0EEEEppB7v160006Ev, symObjAddr: 0x6AC0, symBinAddr: 0x100009F20, symSize: 0x20 }
  - { offsetInCU: 0x1DB21, offset: 0x1DB21, size: 0x8, addend: 0x0, symName: __ZNSt3__18_IterOpsINS_17_ClassicAlgPolicyEE25__validate_iter_referenceB7v160006IRNS_16reverse_iteratorIPN3glm3vecILi2EfLNS5_9qualifierE0EEEEEEEvv, symObjAddr: 0x6AE0, symBinAddr: 0x100009F40, symSize: 0x10 }
  - { offsetInCU: 0x1DB3F, offset: 0x1DB3F, size: 0x8, addend: 0x0, symName: __ZNSt3__118__unwrap_iter_implINS_16reverse_iteratorIPN3glm3vecILi2EfLNS2_9qualifierE0EEEEELb0EE8__unwrapB7v160006ES7_, symObjAddr: 0x6AF0, symBinAddr: 0x100009F50, symSize: 0x20 }
  - { offsetInCU: 0x1DB67, offset: 0x1DB67, size: 0x8, addend: 0x0, symName: __ZNSt3__14pairINS_16reverse_iteratorIPN3glm3vecILi2EfLNS2_9qualifierE0EEEEES7_EC1B7v160006IS7_S7_LPv0EEEOT_OT0_, symObjAddr: 0x6B10, symBinAddr: 0x100009F70, symSize: 0x30 }
  - { offsetInCU: 0x1DBC5, offset: 0x1DBC5, size: 0x8, addend: 0x0, symName: __ZNSt3__14pairINS_16reverse_iteratorIPN3glm3vecILi2EfLNS2_9qualifierE0EEEEES7_EC2B7v160006IS7_S7_LPv0EEEOT_OT0_, symObjAddr: 0x6B40, symBinAddr: 0x100009FA0, symSize: 0x40 }
  - { offsetInCU: 0x1DC23, offset: 0x1DC23, size: 0x8, addend: 0x0, symName: __ZNSt3__118__unwrap_iter_implINS_16reverse_iteratorIPN3glm3vecILi2EfLNS2_9qualifierE0EEEEELb0EE8__rewrapB7v160006ES7_S7_, symObjAddr: 0x6B80, symBinAddr: 0x100009FE0, symSize: 0x30 }
  - { offsetInCU: 0x1DC51, offset: 0x1DC51, size: 0x8, addend: 0x0, symName: __ZNSt3__116reverse_iteratorIPN3glm3vecILi2EfLNS1_9qualifierE0EEEEC2B7v160006ES5_, symObjAddr: 0x6BB0, symBinAddr: 0x10000A010, symSize: 0x30 }
  - { offsetInCU: 0x1DC89, offset: 0x1DC89, size: 0x8, addend: 0x0, symName: __ZNSt3__114__split_bufferIN3glm3vecILi2EfLNS1_9qualifierE0EEERNS_9allocatorIS4_EEED2Ev, symObjAddr: 0x6BE0, symBinAddr: 0x10000A040, symSize: 0x70 }
  - { offsetInCU: 0x1DCB5, offset: 0x1DCB5, size: 0x8, addend: 0x0, symName: __ZNSt3__114__split_bufferIN3glm3vecILi2EfLNS1_9qualifierE0EEERNS_9allocatorIS4_EEE5clearB7v160006Ev, symObjAddr: 0x6C50, symBinAddr: 0x10000A0B0, symSize: 0x20 }
  - { offsetInCU: 0x1DCDB, offset: 0x1DCDB, size: 0x8, addend: 0x0, symName: __ZNKSt3__114__split_bufferIN3glm3vecILi2EfLNS1_9qualifierE0EEERNS_9allocatorIS4_EEE8capacityB7v160006Ev, symObjAddr: 0x6C70, symBinAddr: 0x10000A0D0, symSize: 0x30 }
  - { offsetInCU: 0x1DD01, offset: 0x1DD01, size: 0x8, addend: 0x0, symName: __ZNSt3__114__split_bufferIN3glm3vecILi2EfLNS1_9qualifierE0EEERNS_9allocatorIS4_EEE17__destruct_at_endB7v160006EPS4_, symObjAddr: 0x6CA0, symBinAddr: 0x10000A100, symSize: 0x30 }
  - { offsetInCU: 0x1DD35, offset: 0x1DD35, size: 0x8, addend: 0x0, symName: __ZNSt3__114__split_bufferIN3glm3vecILi2EfLNS1_9qualifierE0EEERNS_9allocatorIS4_EEE17__destruct_at_endB7v160006EPS4_NS_17integral_constantIbLb0EEE, symObjAddr: 0x6CD0, symBinAddr: 0x10000A130, symSize: 0x80 }
  - { offsetInCU: 0x1DD76, offset: 0x1DD76, size: 0x8, addend: 0x0, symName: __ZNKSt3__114__split_bufferIN3glm3vecILi2EfLNS1_9qualifierE0EEERNS_9allocatorIS4_EEE9__end_capB7v160006Ev, symObjAddr: 0x6D50, symBinAddr: 0x10000A1B0, symSize: 0x20 }
  - { offsetInCU: 0x1DD9C, offset: 0x1DD9C, size: 0x8, addend: 0x0, symName: __ZNKSt3__117__compressed_pairIPN3glm3vecILi2EfLNS1_9qualifierE0EEERNS_9allocatorIS4_EEE5firstB7v160006Ev, symObjAddr: 0x6D70, symBinAddr: 0x10000A1D0, symSize: 0x20 }
  - { offsetInCU: 0x1DDC2, offset: 0x1DDC2, size: 0x8, addend: 0x0, symName: __ZNSt3__16vectorI4FaceNS_9allocatorIS1_EEE9__end_capB7v160006Ev, symObjAddr: 0x6D90, symBinAddr: 0x10000A1F0, symSize: 0x20 }
  - { offsetInCU: 0x1DDE8, offset: 0x1DDE8, size: 0x8, addend: 0x0, symName: __ZNSt3__16vectorI4FaceNS_9allocatorIS1_EEE22__construct_one_at_endB7v160006IJRKS1_EEEvDpOT_, symObjAddr: 0x6DB0, symBinAddr: 0x10000A210, symSize: 0x90 }
  - { offsetInCU: 0x1DE37, offset: 0x1DE37, size: 0x8, addend: 0x0, symName: __ZNSt3__16vectorI4FaceNS_9allocatorIS1_EEE21__push_back_slow_pathIRKS1_EEvOT_, symObjAddr: 0x6E40, symBinAddr: 0x10000A2A0, symSize: 0xD0 }
  - { offsetInCU: 0x1DE95, offset: 0x1DE95, size: 0x8, addend: 0x0, symName: __ZNSt3__117__compressed_pairIP4FaceNS_9allocatorIS1_EEE5firstB7v160006Ev, symObjAddr: 0x6F10, symBinAddr: 0x10000A370, symSize: 0x20 }
  - { offsetInCU: 0x1DEBB, offset: 0x1DEBB, size: 0x8, addend: 0x0, symName: __ZNSt3__122__compressed_pair_elemIP4FaceLi0ELb0EE5__getB7v160006Ev, symObjAddr: 0x6F30, symBinAddr: 0x10000A390, symSize: 0x10 }
  - { offsetInCU: 0x1DEFA, offset: 0x1DEFA, size: 0x8, addend: 0x0, symName: __ZNSt3__16vectorI4FaceNS_9allocatorIS1_EEE21_ConstructTransactionC1B7v160006ERS4_m, symObjAddr: 0x6F40, symBinAddr: 0x10000A3A0, symSize: 0x30 }
  - { offsetInCU: 0x1DF42, offset: 0x1DF42, size: 0x8, addend: 0x0, symName: __ZNSt3__116allocator_traitsINS_9allocatorI4FaceEEE9constructB7v160006IS2_JRKS2_EvEEvRS3_PT_DpOT0_, symObjAddr: 0x6F70, symBinAddr: 0x10000A3D0, symSize: 0x30 }
  - { offsetInCU: 0x1DF99, offset: 0x1DF99, size: 0x8, addend: 0x0, symName: __ZNSt3__16vectorI4FaceNS_9allocatorIS1_EEE21_ConstructTransactionD1B7v160006Ev, symObjAddr: 0x6FA0, symBinAddr: 0x10000A400, symSize: 0x20 }
  - { offsetInCU: 0x1DFC3, offset: 0x1DFC3, size: 0x8, addend: 0x0, symName: __ZNSt3__16vectorI4FaceNS_9allocatorIS1_EEE21_ConstructTransactionC2B7v160006ERS4_m, symObjAddr: 0x6FC0, symBinAddr: 0x10000A420, symSize: 0x40 }
  - { offsetInCU: 0x1E00B, offset: 0x1E00B, size: 0x8, addend: 0x0, symName: __ZNSt3__19allocatorI4FaceE9constructB7v160006IS1_JRKS1_EEEvPT_DpOT0_, symObjAddr: 0x7000, symBinAddr: 0x10000A460, symSize: 0x30 }
  - { offsetInCU: 0x1E061, offset: 0x1E061, size: 0x8, addend: 0x0, symName: __ZNSt3__16vectorI4FaceNS_9allocatorIS1_EEE21_ConstructTransactionD2B7v160006Ev, symObjAddr: 0x7030, symBinAddr: 0x10000A490, symSize: 0x20 }
  - { offsetInCU: 0x1E08B, offset: 0x1E08B, size: 0x8, addend: 0x0, symName: __ZNKSt3__16vectorI4FaceNS_9allocatorIS1_EEE11__recommendB7v160006Em, symObjAddr: 0x7050, symBinAddr: 0x10000A4B0, symSize: 0xA0 }
  - { offsetInCU: 0x1E0E0, offset: 0x1E0E0, size: 0x8, addend: 0x0, symName: __ZNSt3__114__split_bufferI4FaceRNS_9allocatorIS1_EEEC1EmmS4_, symObjAddr: 0x70F0, symBinAddr: 0x10000A550, symSize: 0x40 }
  - { offsetInCU: 0x1E136, offset: 0x1E136, size: 0x8, addend: 0x0, symName: __ZNSt3__114__split_bufferI4FaceRNS_9allocatorIS1_EEED1Ev, symObjAddr: 0x7260, symBinAddr: 0x10000A6C0, symSize: 0x20 }
  - { offsetInCU: 0x1E162, offset: 0x1E162, size: 0x8, addend: 0x0, symName: __ZNKSt3__16vectorI4FaceNS_9allocatorIS1_EEE8max_sizeEv, symObjAddr: 0x7280, symBinAddr: 0x10000A6E0, symSize: 0x60 }
  - { offsetInCU: 0x1E18A, offset: 0x1E18A, size: 0x8, addend: 0x0, symName: __ZNKSt3__16vectorI4FaceNS_9allocatorIS1_EEE20__throw_length_errorB7v160006Ev, symObjAddr: 0x72E0, symBinAddr: 0x10000A740, symSize: 0x20 }
  - { offsetInCU: 0x1E1BA, offset: 0x1E1BA, size: 0x8, addend: 0x0, symName: __ZNSt3__116allocator_traitsINS_9allocatorI4FaceEEE8max_sizeB7v160006IS3_vEEmRKS3_, symObjAddr: 0x7300, symBinAddr: 0x10000A760, symSize: 0x20 }
  - { offsetInCU: 0x1E1E8, offset: 0x1E1E8, size: 0x8, addend: 0x0, symName: __ZNKSt3__16vectorI4FaceNS_9allocatorIS1_EEE7__allocB7v160006Ev, symObjAddr: 0x7320, symBinAddr: 0x10000A780, symSize: 0x20 }
  - { offsetInCU: 0x1E20E, offset: 0x1E20E, size: 0x8, addend: 0x0, symName: __ZNKSt3__19allocatorI4FaceE8max_sizeB7v160006Ev, symObjAddr: 0x7340, symBinAddr: 0x10000A7A0, symSize: 0x20 }
  - { offsetInCU: 0x1E234, offset: 0x1E234, size: 0x8, addend: 0x0, symName: __ZNKSt3__117__compressed_pairIP4FaceNS_9allocatorIS1_EEE6secondB7v160006Ev, symObjAddr: 0x7360, symBinAddr: 0x10000A7C0, symSize: 0x20 }
  - { offsetInCU: 0x1E25A, offset: 0x1E25A, size: 0x8, addend: 0x0, symName: __ZNKSt3__122__compressed_pair_elemINS_9allocatorI4FaceEELi1ELb1EE5__getB7v160006Ev, symObjAddr: 0x7380, symBinAddr: 0x10000A7E0, symSize: 0x10 }
  - { offsetInCU: 0x1E280, offset: 0x1E280, size: 0x8, addend: 0x0, symName: __ZNSt3__114__split_bufferI4FaceRNS_9allocatorIS1_EEEC2EmmS4_, symObjAddr: 0x7390, symBinAddr: 0x10000A7F0, symSize: 0xC0 }
  - { offsetInCU: 0x1E2F3, offset: 0x1E2F3, size: 0x8, addend: 0x0, symName: __ZNSt3__117__compressed_pairIP4FaceRNS_9allocatorIS1_EEEC1B7v160006IDnS5_EEOT_OT0_, symObjAddr: 0x7450, symBinAddr: 0x10000A8B0, symSize: 0x30 }
  - { offsetInCU: 0x1E34B, offset: 0x1E34B, size: 0x8, addend: 0x0, symName: __ZNSt3__114__split_bufferI4FaceRNS_9allocatorIS1_EEE7__allocB7v160006Ev, symObjAddr: 0x74C0, symBinAddr: 0x10000A920, symSize: 0x20 }
  - { offsetInCU: 0x1E371, offset: 0x1E371, size: 0x8, addend: 0x0, symName: __ZNSt3__114__split_bufferI4FaceRNS_9allocatorIS1_EEE9__end_capB7v160006Ev, symObjAddr: 0x74E0, symBinAddr: 0x10000A940, symSize: 0x20 }
  - { offsetInCU: 0x1E397, offset: 0x1E397, size: 0x8, addend: 0x0, symName: __ZNSt3__117__compressed_pairIP4FaceRNS_9allocatorIS1_EEEC2B7v160006IDnS5_EEOT_OT0_, symObjAddr: 0x7500, symBinAddr: 0x10000A960, symSize: 0x40 }
  - { offsetInCU: 0x1E3EF, offset: 0x1E3EF, size: 0x8, addend: 0x0, symName: __ZNSt3__122__compressed_pair_elemIRNS_9allocatorI4FaceEELi1ELb0EEC2B7v160006IS4_vEEOT_, symObjAddr: 0x7540, symBinAddr: 0x10000A9A0, symSize: 0x20 }
  - { offsetInCU: 0x1E431, offset: 0x1E431, size: 0x8, addend: 0x0, symName: __ZNSt3__19allocatorI4FaceE8allocateB7v160006Em, symObjAddr: 0x7560, symBinAddr: 0x10000A9C0, symSize: 0x50 }
  - { offsetInCU: 0x1E465, offset: 0x1E465, size: 0x8, addend: 0x0, symName: __ZNSt3__117__compressed_pairIP4FaceRNS_9allocatorIS1_EEE6secondB7v160006Ev, symObjAddr: 0x75B0, symBinAddr: 0x10000AA10, symSize: 0x20 }
  - { offsetInCU: 0x1E48B, offset: 0x1E48B, size: 0x8, addend: 0x0, symName: __ZNSt3__122__compressed_pair_elemIRNS_9allocatorI4FaceEELi1ELb0EE5__getB7v160006Ev, symObjAddr: 0x75D0, symBinAddr: 0x10000AA30, symSize: 0x20 }
  - { offsetInCU: 0x1E4B1, offset: 0x1E4B1, size: 0x8, addend: 0x0, symName: __ZNSt3__117__compressed_pairIP4FaceRNS_9allocatorIS1_EEE5firstB7v160006Ev, symObjAddr: 0x75F0, symBinAddr: 0x10000AA50, symSize: 0x20 }
  - { offsetInCU: 0x1E4D7, offset: 0x1E4D7, size: 0x8, addend: 0x0, symName: __ZNSt3__116reverse_iteratorIP4FaceEC1B7v160006ES2_, symObjAddr: 0x7680, symBinAddr: 0x10000AAE0, symSize: 0x30 }
  - { offsetInCU: 0x1E50F, offset: 0x1E50F, size: 0x8, addend: 0x0, symName: __ZNKSt3__116reverse_iteratorIP4FaceE4baseB7v160006Ev, symObjAddr: 0x76B0, symBinAddr: 0x10000AB10, symSize: 0x20 }
  - { offsetInCU: 0x1E535, offset: 0x1E535, size: 0x8, addend: 0x0, symName: __ZNKSt3__16vectorI4FaceNS_9allocatorIS1_EEE14__annotate_newB7v160006Em, symObjAddr: 0x7710, symBinAddr: 0x10000AB70, symSize: 0xA0 }
  - { offsetInCU: 0x1E583, offset: 0x1E583, size: 0x8, addend: 0x0, symName: __ZNKSt3__111__move_loopINS_17_ClassicAlgPolicyEEclB7v160006INS_16reverse_iteratorIP4FaceEES7_S7_EENS_4pairIT_T1_EES9_T0_SA_, symObjAddr: 0x7C00, symBinAddr: 0x10000B060, symSize: 0xA0 }
  - { offsetInCU: 0x1E5F3, offset: 0x1E5F3, size: 0x8, addend: 0x0, symName: __ZNSt3__18_IterOpsINS_17_ClassicAlgPolicyEE11__iter_moveB7v160006IRNS_16reverse_iteratorIP4FaceEEEENS_9enable_ifIXsr12is_referenceIDTdeclsr3stdE7declvalIRT_EEEEE5valueEDTclsr3stdE4movedeclsr3stdE7declvalISB_EEEEE4typeEOSA_, symObjAddr: 0x7E20, symBinAddr: 0x10000B280, symSize: 0x20 }
  - { offsetInCU: 0x1E61F, offset: 0x1E61F, size: 0x8, addend: 0x0, symName: __ZNKSt3__116reverse_iteratorIP4FaceEdeB7v160006Ev, symObjAddr: 0x7E40, symBinAddr: 0x10000B2A0, symSize: 0x30 }
  - { offsetInCU: 0x1E653, offset: 0x1E653, size: 0x8, addend: 0x0, symName: __ZNSt3__116reverse_iteratorIP4FaceEppB7v160006Ev, symObjAddr: 0x7E70, symBinAddr: 0x10000B2D0, symSize: 0x20 }
  - { offsetInCU: 0x1E679, offset: 0x1E679, size: 0x8, addend: 0x0, symName: __ZNSt3__18_IterOpsINS_17_ClassicAlgPolicyEE25__validate_iter_referenceB7v160006IRNS_16reverse_iteratorIP4FaceEEEEvv, symObjAddr: 0x7E90, symBinAddr: 0x10000B2F0, symSize: 0x10 }
  - { offsetInCU: 0x1E697, offset: 0x1E697, size: 0x8, addend: 0x0, symName: __ZNSt3__118__unwrap_iter_implINS_16reverse_iteratorIP4FaceEELb0EE8__unwrapB7v160006ES4_, symObjAddr: 0x7EA0, symBinAddr: 0x10000B300, symSize: 0x20 }
  - { offsetInCU: 0x1E6BF, offset: 0x1E6BF, size: 0x8, addend: 0x0, symName: __ZNSt3__14pairINS_16reverse_iteratorIP4FaceEES4_EC1B7v160006IS4_S4_LPv0EEEOT_OT0_, symObjAddr: 0x7EC0, symBinAddr: 0x10000B320, symSize: 0x30 }
  - { offsetInCU: 0x1E71D, offset: 0x1E71D, size: 0x8, addend: 0x0, symName: __ZNSt3__14pairINS_16reverse_iteratorIP4FaceEES4_EC2B7v160006IS4_S4_LPv0EEEOT_OT0_, symObjAddr: 0x7EF0, symBinAddr: 0x10000B350, symSize: 0x40 }
  - { offsetInCU: 0x1E77B, offset: 0x1E77B, size: 0x8, addend: 0x0, symName: __ZNSt3__118__unwrap_iter_implINS_16reverse_iteratorIP4FaceEELb0EE8__rewrapB7v160006ES4_S4_, symObjAddr: 0x7F30, symBinAddr: 0x10000B390, symSize: 0x30 }
  - { offsetInCU: 0x1E7A9, offset: 0x1E7A9, size: 0x8, addend: 0x0, symName: __ZNSt3__116reverse_iteratorIP4FaceEC2B7v160006ES2_, symObjAddr: 0x7F60, symBinAddr: 0x10000B3C0, symSize: 0x30 }
  - { offsetInCU: 0x1E7E1, offset: 0x1E7E1, size: 0x8, addend: 0x0, symName: __ZNSt3__114__split_bufferI4FaceRNS_9allocatorIS1_EEED2Ev, symObjAddr: 0x7F90, symBinAddr: 0x10000B3F0, symSize: 0x70 }
  - { offsetInCU: 0x1E80D, offset: 0x1E80D, size: 0x8, addend: 0x0, symName: __ZNSt3__114__split_bufferI4FaceRNS_9allocatorIS1_EEE5clearB7v160006Ev, symObjAddr: 0x8000, symBinAddr: 0x10000B460, symSize: 0x20 }
  - { offsetInCU: 0x1E833, offset: 0x1E833, size: 0x8, addend: 0x0, symName: __ZNKSt3__114__split_bufferI4FaceRNS_9allocatorIS1_EEE8capacityB7v160006Ev, symObjAddr: 0x8020, symBinAddr: 0x10000B480, symSize: 0x40 }
  - { offsetInCU: 0x1E859, offset: 0x1E859, size: 0x8, addend: 0x0, symName: __ZNSt3__114__split_bufferI4FaceRNS_9allocatorIS1_EEE17__destruct_at_endB7v160006EPS1_, symObjAddr: 0x8060, symBinAddr: 0x10000B4C0, symSize: 0x30 }
  - { offsetInCU: 0x1E88D, offset: 0x1E88D, size: 0x8, addend: 0x0, symName: __ZNSt3__114__split_bufferI4FaceRNS_9allocatorIS1_EEE17__destruct_at_endB7v160006EPS1_NS_17integral_constantIbLb0EEE, symObjAddr: 0x8090, symBinAddr: 0x10000B4F0, symSize: 0x80 }
  - { offsetInCU: 0x1E8CE, offset: 0x1E8CE, size: 0x8, addend: 0x0, symName: __ZNKSt3__114__split_bufferI4FaceRNS_9allocatorIS1_EEE9__end_capB7v160006Ev, symObjAddr: 0x8110, symBinAddr: 0x10000B570, symSize: 0x20 }
  - { offsetInCU: 0x1E8F4, offset: 0x1E8F4, size: 0x8, addend: 0x0, symName: __ZNKSt3__117__compressed_pairIP4FaceRNS_9allocatorIS1_EEE5firstB7v160006Ev, symObjAddr: 0x8130, symBinAddr: 0x10000B590, symSize: 0x20 }
  - { offsetInCU: 0x1E91A, offset: 0x1E91A, size: 0x8, addend: 0x0, symName: __ZNSt3__16vectorIjNS_9allocatorIjEEEC2B7v160006Ev, symObjAddr: 0x8150, symBinAddr: 0x10000B5B0, symSize: 0x60 }
  - { offsetInCU: 0x1E944, offset: 0x1E944, size: 0x8, addend: 0x0, symName: __ZNSt3__117__compressed_pairIPjNS_9allocatorIjEEEC1B7v160006IDnNS_18__default_init_tagEEEOT_OT0_, symObjAddr: 0x81B0, symBinAddr: 0x10000B610, symSize: 0x30 }
  - { offsetInCU: 0x1E99C, offset: 0x1E99C, size: 0x8, addend: 0x0, symName: __ZNSt3__117__compressed_pairIPjNS_9allocatorIjEEEC2B7v160006IDnNS_18__default_init_tagEEEOT_OT0_, symObjAddr: 0x81F0, symBinAddr: 0x10000B650, symSize: 0x40 }
  - { offsetInCU: 0x1E9F4, offset: 0x1E9F4, size: 0x8, addend: 0x0, symName: __ZNSt3__122__compressed_pair_elemIPjLi0ELb0EEC2B7v160006IDnvEEOT_, symObjAddr: 0x8230, symBinAddr: 0x10000B690, symSize: 0x20 }
  - { offsetInCU: 0x1EA36, offset: 0x1EA36, size: 0x8, addend: 0x0, symName: __ZNSt3__122__compressed_pair_elemINS_9allocatorIjEELi1ELb1EEC2B7v160006ENS_18__default_init_tagE, symObjAddr: 0x8250, symBinAddr: 0x10000B6B0, symSize: 0x20 }
  - { offsetInCU: 0x1EA6B, offset: 0x1EA6B, size: 0x8, addend: 0x0, symName: __ZNSt3__19allocatorIjEC2B7v160006Ev, symObjAddr: 0x8270, symBinAddr: 0x10000B6D0, symSize: 0x20 }
  - { offsetInCU: 0x1EA95, offset: 0x1EA95, size: 0x8, addend: 0x0, symName: __ZNSt3__116__non_trivial_ifILb1ENS_9allocatorIjEEEC2B7v160006Ev, symObjAddr: 0x8290, symBinAddr: 0x10000B6F0, symSize: 0x10 }
  - { offsetInCU: 0x1EABF, offset: 0x1EABF, size: 0x8, addend: 0x0, symName: __ZNSt3__16vectorIjNS_9allocatorIjEEED2B7v160006Ev, symObjAddr: 0x82A0, symBinAddr: 0x10000B700, symSize: 0x40 }
  - { offsetInCU: 0x1EAE9, offset: 0x1EAE9, size: 0x8, addend: 0x0, symName: __ZNSt3__16vectorIjNS_9allocatorIjEEE16__destroy_vectorC1ERS3_, symObjAddr: 0x82E0, symBinAddr: 0x10000B740, symSize: 0x30 }
  - { offsetInCU: 0x1EB22, offset: 0x1EB22, size: 0x8, addend: 0x0, symName: __ZNSt3__16vectorIjNS_9allocatorIjEEE16__destroy_vectorclB7v160006Ev, symObjAddr: 0x8310, symBinAddr: 0x10000B770, symSize: 0x90 }
  - { offsetInCU: 0x1EB48, offset: 0x1EB48, size: 0x8, addend: 0x0, symName: __ZNSt3__16vectorIjNS_9allocatorIjEEE16__destroy_vectorC2ERS3_, symObjAddr: 0x83A0, symBinAddr: 0x10000B800, symSize: 0x20 }
  - { offsetInCU: 0x1EB81, offset: 0x1EB81, size: 0x8, addend: 0x0, symName: __ZNKSt3__16vectorIjNS_9allocatorIjEEE17__annotate_deleteB7v160006Ev, symObjAddr: 0x83C0, symBinAddr: 0x10000B820, symSize: 0xB0 }
  - { offsetInCU: 0x1EBA7, offset: 0x1EBA7, size: 0x8, addend: 0x0, symName: __ZNSt3__16vectorIjNS_9allocatorIjEEE7__clearB7v160006Ev, symObjAddr: 0x8480, symBinAddr: 0x10000B8E0, symSize: 0x20 }
  - { offsetInCU: 0x1EBCD, offset: 0x1EBCD, size: 0x8, addend: 0x0, symName: __ZNSt3__116allocator_traitsINS_9allocatorIjEEE10deallocateB7v160006ERS2_Pjm, symObjAddr: 0x84A0, symBinAddr: 0x10000B900, symSize: 0x30 }
  - { offsetInCU: 0x1EC0F, offset: 0x1EC0F, size: 0x8, addend: 0x0, symName: __ZNSt3__16vectorIjNS_9allocatorIjEEE7__allocB7v160006Ev, symObjAddr: 0x84D0, symBinAddr: 0x10000B930, symSize: 0x20 }
  - { offsetInCU: 0x1EC35, offset: 0x1EC35, size: 0x8, addend: 0x0, symName: __ZNKSt3__16vectorIjNS_9allocatorIjEEE8capacityB7v160006Ev, symObjAddr: 0x84F0, symBinAddr: 0x10000B950, symSize: 0x30 }
  - { offsetInCU: 0x1EC5B, offset: 0x1EC5B, size: 0x8, addend: 0x0, symName: __ZNKSt3__16vectorIjNS_9allocatorIjEEE31__annotate_contiguous_containerB7v160006EPKvS5_S5_S5_, symObjAddr: 0x8520, symBinAddr: 0x10000B980, symSize: 0x20 }
  - { offsetInCU: 0x1ECAD, offset: 0x1ECAD, size: 0x8, addend: 0x0, symName: __ZNKSt3__16vectorIjNS_9allocatorIjEEE4dataB7v160006Ev, symObjAddr: 0x8540, symBinAddr: 0x10000B9A0, symSize: 0x20 }
  - { offsetInCU: 0x1ECD3, offset: 0x1ECD3, size: 0x8, addend: 0x0, symName: __ZNSt3__16vectorIjNS_9allocatorIjEEE22__base_destruct_at_endB7v160006EPj, symObjAddr: 0x8570, symBinAddr: 0x10000B9D0, symSize: 0x80 }
  - { offsetInCU: 0x1ED17, offset: 0x1ED17, size: 0x8, addend: 0x0, symName: __ZNSt3__116allocator_traitsINS_9allocatorIjEEE7destroyB7v160006IjvEEvRS2_PT_, symObjAddr: 0x85F0, symBinAddr: 0x10000BA50, symSize: 0x30 }
  - { offsetInCU: 0x1ED54, offset: 0x1ED54, size: 0x8, addend: 0x0, symName: __ZNSt3__19allocatorIjE7destroyB7v160006EPj, symObjAddr: 0x8620, symBinAddr: 0x10000BA80, symSize: 0x10 }
  - { offsetInCU: 0x1ED88, offset: 0x1ED88, size: 0x8, addend: 0x0, symName: __ZNSt3__19allocatorIjE10deallocateB7v160006EPjm, symObjAddr: 0x8630, symBinAddr: 0x10000BA90, symSize: 0x40 }
  - { offsetInCU: 0x1EDCA, offset: 0x1EDCA, size: 0x8, addend: 0x0, symName: __ZNSt3__117__compressed_pairIPjNS_9allocatorIjEEE6secondB7v160006Ev, symObjAddr: 0x8670, symBinAddr: 0x10000BAD0, symSize: 0x20 }
  - { offsetInCU: 0x1EDF0, offset: 0x1EDF0, size: 0x8, addend: 0x0, symName: __ZNSt3__122__compressed_pair_elemINS_9allocatorIjEELi1ELb1EE5__getB7v160006Ev, symObjAddr: 0x8690, symBinAddr: 0x10000BAF0, symSize: 0x10 }
  - { offsetInCU: 0x1EE16, offset: 0x1EE16, size: 0x8, addend: 0x0, symName: __ZNKSt3__16vectorIjNS_9allocatorIjEEE9__end_capB7v160006Ev, symObjAddr: 0x86A0, symBinAddr: 0x10000BB00, symSize: 0x20 }
  - { offsetInCU: 0x1EE3C, offset: 0x1EE3C, size: 0x8, addend: 0x0, symName: __ZNKSt3__117__compressed_pairIPjNS_9allocatorIjEEE5firstB7v160006Ev, symObjAddr: 0x86C0, symBinAddr: 0x10000BB20, symSize: 0x20 }
  - { offsetInCU: 0x1EE62, offset: 0x1EE62, size: 0x8, addend: 0x0, symName: __ZNKSt3__122__compressed_pair_elemIPjLi0ELb0EE5__getB7v160006Ev, symObjAddr: 0x86E0, symBinAddr: 0x10000BB40, symSize: 0x10 }
  - { offsetInCU: 0x1EE88, offset: 0x1EE88, size: 0x8, addend: 0x0, symName: __ZNSt3__16vectorI4FaceNS_9allocatorIS1_EEE11__make_iterB7v160006EPS1_, symObjAddr: 0x86F0, symBinAddr: 0x10000BB50, symSize: 0x30 }
  - { offsetInCU: 0x1EEBD, offset: 0x1EEBD, size: 0x8, addend: 0x0, symName: __ZNSt3__111__wrap_iterIP4FaceEC1B7v160006EPKvS2_, symObjAddr: 0x8720, symBinAddr: 0x10000BB80, symSize: 0x30 }
  - { offsetInCU: 0x1EF03, offset: 0x1EF03, size: 0x8, addend: 0x0, symName: __ZNSt3__111__wrap_iterIP4FaceEC2B7v160006EPKvS2_, symObjAddr: 0x8750, symBinAddr: 0x10000BBB0, symSize: 0x20 }
  - { offsetInCU: 0x1EF49, offset: 0x1EF49, size: 0x8, addend: 0x0, symName: __ZNSt3__16vectorIjNS_9allocatorIjEEE9__end_capB7v160006Ev, symObjAddr: 0x8770, symBinAddr: 0x10000BBD0, symSize: 0x20 }
  - { offsetInCU: 0x1EF74, offset: 0x1EF74, size: 0x8, addend: 0x0, symName: __ZNSt3__16vectorIjNS_9allocatorIjEEE22__construct_one_at_endB7v160006IJjEEEvDpOT_, symObjAddr: 0x8790, symBinAddr: 0x10000BBF0, symSize: 0x90 }
  - { offsetInCU: 0x1EFC3, offset: 0x1EFC3, size: 0x8, addend: 0x0, symName: __ZNSt3__16vectorIjNS_9allocatorIjEEE21__push_back_slow_pathIjEEvOT_, symObjAddr: 0x8820, symBinAddr: 0x10000BC80, symSize: 0xD0 }
  - { offsetInCU: 0x1F021, offset: 0x1F021, size: 0x8, addend: 0x0, symName: __ZNSt3__117__compressed_pairIPjNS_9allocatorIjEEE5firstB7v160006Ev, symObjAddr: 0x88F0, symBinAddr: 0x10000BD50, symSize: 0x20 }
  - { offsetInCU: 0x1F047, offset: 0x1F047, size: 0x8, addend: 0x0, symName: __ZNSt3__122__compressed_pair_elemIPjLi0ELb0EE5__getB7v160006Ev, symObjAddr: 0x8910, symBinAddr: 0x10000BD70, symSize: 0x10 }
  - { offsetInCU: 0x1F086, offset: 0x1F086, size: 0x8, addend: 0x0, symName: __ZNSt3__16vectorIjNS_9allocatorIjEEE21_ConstructTransactionC1B7v160006ERS3_m, symObjAddr: 0x8920, symBinAddr: 0x10000BD80, symSize: 0x30 }
  - { offsetInCU: 0x1F0CE, offset: 0x1F0CE, size: 0x8, addend: 0x0, symName: __ZNSt3__116allocator_traitsINS_9allocatorIjEEE9constructB7v160006IjJjEvEEvRS2_PT_DpOT0_, symObjAddr: 0x8950, symBinAddr: 0x10000BDB0, symSize: 0x30 }
  - { offsetInCU: 0x1F125, offset: 0x1F125, size: 0x8, addend: 0x0, symName: __ZNSt3__16vectorIjNS_9allocatorIjEEE21_ConstructTransactionD1B7v160006Ev, symObjAddr: 0x8980, symBinAddr: 0x10000BDE0, symSize: 0x20 }
  - { offsetInCU: 0x1F14F, offset: 0x1F14F, size: 0x8, addend: 0x0, symName: __ZNSt3__16vectorIjNS_9allocatorIjEEE21_ConstructTransactionC2B7v160006ERS3_m, symObjAddr: 0x89A0, symBinAddr: 0x10000BE00, symSize: 0x40 }
  - { offsetInCU: 0x1F197, offset: 0x1F197, size: 0x8, addend: 0x0, symName: __ZNSt3__19allocatorIjE9constructB7v160006IjJjEEEvPT_DpOT0_, symObjAddr: 0x89E0, symBinAddr: 0x10000BE40, symSize: 0x20 }
  - { offsetInCU: 0x1F1ED, offset: 0x1F1ED, size: 0x8, addend: 0x0, symName: __ZNSt3__16vectorIjNS_9allocatorIjEEE21_ConstructTransactionD2B7v160006Ev, symObjAddr: 0x8A00, symBinAddr: 0x10000BE60, symSize: 0x20 }
  - { offsetInCU: 0x1F217, offset: 0x1F217, size: 0x8, addend: 0x0, symName: __ZNKSt3__16vectorIjNS_9allocatorIjEEE11__recommendB7v160006Em, symObjAddr: 0x8A20, symBinAddr: 0x10000BE80, symSize: 0xA0 }
  - { offsetInCU: 0x1F26C, offset: 0x1F26C, size: 0x8, addend: 0x0, symName: __ZNSt3__114__split_bufferIjRNS_9allocatorIjEEEC1EmmS3_, symObjAddr: 0x8AC0, symBinAddr: 0x10000BF20, symSize: 0x40 }
  - { offsetInCU: 0x1F2C2, offset: 0x1F2C2, size: 0x8, addend: 0x0, symName: __ZNSt3__114__split_bufferIjRNS_9allocatorIjEEED1Ev, symObjAddr: 0x8C30, symBinAddr: 0x10000C090, symSize: 0x20 }
  - { offsetInCU: 0x1F2EE, offset: 0x1F2EE, size: 0x8, addend: 0x0, symName: __ZNKSt3__16vectorIjNS_9allocatorIjEEE8max_sizeEv, symObjAddr: 0x8C50, symBinAddr: 0x10000C0B0, symSize: 0x60 }
  - { offsetInCU: 0x1F316, offset: 0x1F316, size: 0x8, addend: 0x0, symName: __ZNKSt3__16vectorIjNS_9allocatorIjEEE20__throw_length_errorB7v160006Ev, symObjAddr: 0x8CB0, symBinAddr: 0x10000C110, symSize: 0x20 }
  - { offsetInCU: 0x1F346, offset: 0x1F346, size: 0x8, addend: 0x0, symName: __ZNSt3__116allocator_traitsINS_9allocatorIjEEE8max_sizeB7v160006IS2_vEEmRKS2_, symObjAddr: 0x8CD0, symBinAddr: 0x10000C130, symSize: 0x20 }
  - { offsetInCU: 0x1F374, offset: 0x1F374, size: 0x8, addend: 0x0, symName: __ZNKSt3__16vectorIjNS_9allocatorIjEEE7__allocB7v160006Ev, symObjAddr: 0x8CF0, symBinAddr: 0x10000C150, symSize: 0x20 }
  - { offsetInCU: 0x1F39A, offset: 0x1F39A, size: 0x8, addend: 0x0, symName: __ZNKSt3__19allocatorIjE8max_sizeB7v160006Ev, symObjAddr: 0x8D10, symBinAddr: 0x10000C170, symSize: 0x20 }
  - { offsetInCU: 0x1F3C0, offset: 0x1F3C0, size: 0x8, addend: 0x0, symName: __ZNKSt3__117__compressed_pairIPjNS_9allocatorIjEEE6secondB7v160006Ev, symObjAddr: 0x8D30, symBinAddr: 0x10000C190, symSize: 0x20 }
  - { offsetInCU: 0x1F3E6, offset: 0x1F3E6, size: 0x8, addend: 0x0, symName: __ZNKSt3__122__compressed_pair_elemINS_9allocatorIjEELi1ELb1EE5__getB7v160006Ev, symObjAddr: 0x8D50, symBinAddr: 0x10000C1B0, symSize: 0x10 }
  - { offsetInCU: 0x1F40C, offset: 0x1F40C, size: 0x8, addend: 0x0, symName: __ZNSt3__114__split_bufferIjRNS_9allocatorIjEEEC2EmmS3_, symObjAddr: 0x8D60, symBinAddr: 0x10000C1C0, symSize: 0xD0 }
  - { offsetInCU: 0x1F47F, offset: 0x1F47F, size: 0x8, addend: 0x0, symName: __ZNSt3__117__compressed_pairIPjRNS_9allocatorIjEEEC1B7v160006IDnS4_EEOT_OT0_, symObjAddr: 0x8E30, symBinAddr: 0x10000C290, symSize: 0x30 }
  - { offsetInCU: 0x1F4D7, offset: 0x1F4D7, size: 0x8, addend: 0x0, symName: __ZNSt3__114__split_bufferIjRNS_9allocatorIjEEE7__allocB7v160006Ev, symObjAddr: 0x8EA0, symBinAddr: 0x10000C300, symSize: 0x20 }
  - { offsetInCU: 0x1F4FD, offset: 0x1F4FD, size: 0x8, addend: 0x0, symName: __ZNSt3__114__split_bufferIjRNS_9allocatorIjEEE9__end_capB7v160006Ev, symObjAddr: 0x8EC0, symBinAddr: 0x10000C320, symSize: 0x20 }
  - { offsetInCU: 0x1F523, offset: 0x1F523, size: 0x8, addend: 0x0, symName: __ZNSt3__117__compressed_pairIPjRNS_9allocatorIjEEEC2B7v160006IDnS4_EEOT_OT0_, symObjAddr: 0x8EE0, symBinAddr: 0x10000C340, symSize: 0x40 }
  - { offsetInCU: 0x1F57B, offset: 0x1F57B, size: 0x8, addend: 0x0, symName: __ZNSt3__122__compressed_pair_elemIRNS_9allocatorIjEELi1ELb0EEC2B7v160006IS3_vEEOT_, symObjAddr: 0x8F20, symBinAddr: 0x10000C380, symSize: 0x20 }
  - { offsetInCU: 0x1F5BD, offset: 0x1F5BD, size: 0x8, addend: 0x0, symName: __ZNSt3__19allocatorIjE8allocateB7v160006Em, symObjAddr: 0x8F40, symBinAddr: 0x10000C3A0, symSize: 0x50 }
  - { offsetInCU: 0x1F5F1, offset: 0x1F5F1, size: 0x8, addend: 0x0, symName: __ZNSt3__117__compressed_pairIPjRNS_9allocatorIjEEE6secondB7v160006Ev, symObjAddr: 0x8F90, symBinAddr: 0x10000C3F0, symSize: 0x20 }
  - { offsetInCU: 0x1F617, offset: 0x1F617, size: 0x8, addend: 0x0, symName: __ZNSt3__122__compressed_pair_elemIRNS_9allocatorIjEELi1ELb0EE5__getB7v160006Ev, symObjAddr: 0x8FB0, symBinAddr: 0x10000C410, symSize: 0x20 }
  - { offsetInCU: 0x1F63D, offset: 0x1F63D, size: 0x8, addend: 0x0, symName: __ZNSt3__117__compressed_pairIPjRNS_9allocatorIjEEE5firstB7v160006Ev, symObjAddr: 0x8FD0, symBinAddr: 0x10000C430, symSize: 0x20 }
  - { offsetInCU: 0x1F663, offset: 0x1F663, size: 0x8, addend: 0x0, symName: __ZNSt3__116reverse_iteratorIPjEC1B7v160006ES1_, symObjAddr: 0x9060, symBinAddr: 0x10000C4C0, symSize: 0x30 }
  - { offsetInCU: 0x1F69B, offset: 0x1F69B, size: 0x8, addend: 0x0, symName: __ZNKSt3__116reverse_iteratorIPjE4baseB7v160006Ev, symObjAddr: 0x9090, symBinAddr: 0x10000C4F0, symSize: 0x20 }
  - { offsetInCU: 0x1F6C1, offset: 0x1F6C1, size: 0x8, addend: 0x0, symName: __ZNKSt3__16vectorIjNS_9allocatorIjEEE14__annotate_newB7v160006Em, symObjAddr: 0x90F0, symBinAddr: 0x10000C550, symSize: 0xB0 }
  - { offsetInCU: 0x1F70F, offset: 0x1F70F, size: 0x8, addend: 0x0, symName: __ZNKSt3__111__move_loopINS_17_ClassicAlgPolicyEEclB7v160006INS_16reverse_iteratorIPjEES6_S6_EENS_4pairIT_T1_EES8_T0_S9_, symObjAddr: 0x95F0, symBinAddr: 0x10000CA50, symSize: 0xA0 }
  - { offsetInCU: 0x1F77A, offset: 0x1F77A, size: 0x8, addend: 0x0, symName: __ZNSt3__18_IterOpsINS_17_ClassicAlgPolicyEE11__iter_moveB7v160006IRNS_16reverse_iteratorIPjEEEENS_9enable_ifIXsr12is_referenceIDTdeclsr3stdE7declvalIRT_EEEEE5valueEDTclsr3stdE4movedeclsr3stdE7declvalISA_EEEEE4typeEOS9_, symObjAddr: 0x9810, symBinAddr: 0x10000CC70, symSize: 0x20 }
  - { offsetInCU: 0x1F7A6, offset: 0x1F7A6, size: 0x8, addend: 0x0, symName: __ZNKSt3__116reverse_iteratorIPjEdeB7v160006Ev, symObjAddr: 0x9830, symBinAddr: 0x10000CC90, symSize: 0x30 }
  - { offsetInCU: 0x1F7DA, offset: 0x1F7DA, size: 0x8, addend: 0x0, symName: __ZNSt3__116reverse_iteratorIPjEppB7v160006Ev, symObjAddr: 0x9860, symBinAddr: 0x10000CCC0, symSize: 0x20 }
  - { offsetInCU: 0x1F800, offset: 0x1F800, size: 0x8, addend: 0x0, symName: __ZNSt3__18_IterOpsINS_17_ClassicAlgPolicyEE25__validate_iter_referenceB7v160006IRNS_16reverse_iteratorIPjEEEEvv, symObjAddr: 0x9880, symBinAddr: 0x10000CCE0, symSize: 0x10 }
  - { offsetInCU: 0x1F81E, offset: 0x1F81E, size: 0x8, addend: 0x0, symName: __ZNSt3__118__unwrap_iter_implINS_16reverse_iteratorIPjEELb0EE8__unwrapB7v160006ES3_, symObjAddr: 0x9890, symBinAddr: 0x10000CCF0, symSize: 0x20 }
  - { offsetInCU: 0x1F846, offset: 0x1F846, size: 0x8, addend: 0x0, symName: __ZNSt3__14pairINS_16reverse_iteratorIPjEES3_EC1B7v160006IS3_S3_LPv0EEEOT_OT0_, symObjAddr: 0x98B0, symBinAddr: 0x10000CD10, symSize: 0x30 }
  - { offsetInCU: 0x1F8A4, offset: 0x1F8A4, size: 0x8, addend: 0x0, symName: __ZNSt3__14pairINS_16reverse_iteratorIPjEES3_EC2B7v160006IS3_S3_LPv0EEEOT_OT0_, symObjAddr: 0x98E0, symBinAddr: 0x10000CD40, symSize: 0x40 }
  - { offsetInCU: 0x1F902, offset: 0x1F902, size: 0x8, addend: 0x0, symName: __ZNSt3__118__unwrap_iter_implINS_16reverse_iteratorIPjEELb0EE8__rewrapB7v160006ES3_S3_, symObjAddr: 0x9920, symBinAddr: 0x10000CD80, symSize: 0x30 }
  - { offsetInCU: 0x1F930, offset: 0x1F930, size: 0x8, addend: 0x0, symName: __ZNSt3__116reverse_iteratorIPjEC2B7v160006ES1_, symObjAddr: 0x9950, symBinAddr: 0x10000CDB0, symSize: 0x30 }
  - { offsetInCU: 0x1F968, offset: 0x1F968, size: 0x8, addend: 0x0, symName: __ZNSt3__114__split_bufferIjRNS_9allocatorIjEEED2Ev, symObjAddr: 0x9980, symBinAddr: 0x10000CDE0, symSize: 0x70 }
  - { offsetInCU: 0x1F994, offset: 0x1F994, size: 0x8, addend: 0x0, symName: __ZNSt3__114__split_bufferIjRNS_9allocatorIjEEE5clearB7v160006Ev, symObjAddr: 0x99F0, symBinAddr: 0x10000CE50, symSize: 0x20 }
  - { offsetInCU: 0x1F9BA, offset: 0x1F9BA, size: 0x8, addend: 0x0, symName: __ZNKSt3__114__split_bufferIjRNS_9allocatorIjEEE8capacityB7v160006Ev, symObjAddr: 0x9A10, symBinAddr: 0x10000CE70, symSize: 0x30 }
  - { offsetInCU: 0x1F9E0, offset: 0x1F9E0, size: 0x8, addend: 0x0, symName: __ZNSt3__114__split_bufferIjRNS_9allocatorIjEEE17__destruct_at_endB7v160006EPj, symObjAddr: 0x9A40, symBinAddr: 0x10000CEA0, symSize: 0x30 }
  - { offsetInCU: 0x1FA14, offset: 0x1FA14, size: 0x8, addend: 0x0, symName: __ZNSt3__114__split_bufferIjRNS_9allocatorIjEEE17__destruct_at_endB7v160006EPjNS_17integral_constantIbLb0EEE, symObjAddr: 0x9A70, symBinAddr: 0x10000CED0, symSize: 0x80 }
  - { offsetInCU: 0x1FA55, offset: 0x1FA55, size: 0x8, addend: 0x0, symName: __ZNKSt3__114__split_bufferIjRNS_9allocatorIjEEE9__end_capB7v160006Ev, symObjAddr: 0x9AF0, symBinAddr: 0x10000CF50, symSize: 0x20 }
  - { offsetInCU: 0x1FA7B, offset: 0x1FA7B, size: 0x8, addend: 0x0, symName: __ZNKSt3__117__compressed_pairIPjRNS_9allocatorIjEEE5firstB7v160006Ev, symObjAddr: 0x9B10, symBinAddr: 0x10000CF70, symSize: 0x1B }
  - { offsetInCU: 0x92FA, offset: 0x28F9D, size: 0x8, addend: 0x0, symName: __ZNSt3__16copy_nB7v160006IPKcmPcEENS_9enable_ifIXsr33__is_cpp17_random_access_iteratorIT_EE5valueET1_E4typeES5_T0_S6_, symObjAddr: 0x2290, symBinAddr: 0x10000DF60, symSize: 0x40 }
  - { offsetInCU: 0xA96B, offset: 0x2A60E, size: 0x8, addend: 0x0, symName: __ZNSt3__1plB7v160006IcNS_11char_traitsIcEENS_9allocatorIcEEEENS_12basic_stringIT_T0_T1_EERKS9_PKS6_, symObjAddr: 0x8F0, symBinAddr: 0x10000D650, symSize: 0x100 }
  - { offsetInCU: 0xAA18, offset: 0x2A6BB, size: 0x8, addend: 0x0, symName: __ZNSt3__115__debug_db_swapB7v160006INS_12basic_stringIcNS_11char_traitsIcEENS_9allocatorIcEEEEEEvPT_S8_, symObjAddr: 0xF50, symBinAddr: 0x10000D9D0, symSize: 0x10 }
  - { offsetInCU: 0xAA57, offset: 0x2A6FA, size: 0x8, addend: 0x0, symName: __ZNSt3__14copyB7v160006IPKcPcEET0_T_S5_S4_, symObjAddr: 0x22D0, symBinAddr: 0x10000DFA0, symSize: 0x40 }
  - { offsetInCU: 0xAAB1, offset: 0x2A754, size: 0x8, addend: 0x0, symName: __ZNSt3__16__copyB7v160006INS_17_ClassicAlgPolicyEPKcS3_PcEENS_4pairIT0_T2_EES6_T1_S7_, symObjAddr: 0x2310, symBinAddr: 0x10000DFE0, symSize: 0x40 }
  - { offsetInCU: 0xAB1D, offset: 0x2A7C0, size: 0x8, addend: 0x0, symName: __ZNSt3__123__dispatch_copy_or_moveB7v160006INS_17_ClassicAlgPolicyENS_11__copy_loopIS1_EENS_14__copy_trivialEPKcS6_PcEENS_4pairIT2_T4_EES9_T3_SA_, symObjAddr: 0x2350, symBinAddr: 0x10000E020, symSize: 0x40 }
  - { offsetInCU: 0xAB9B, offset: 0x2A83E, size: 0x8, addend: 0x0, symName: __ZNSt3__121__unwrap_and_dispatchB7v160006INS_10__overloadINS_11__copy_loopINS_17_ClassicAlgPolicyEEENS_14__copy_trivialEEEPKcS8_PcLi0EEENS_4pairIT0_T2_EESB_T1_SC_, symObjAddr: 0x2390, symBinAddr: 0x10000E060, symSize: 0xB0 }
  - { offsetInCU: 0xAC2A, offset: 0x2A8CD, size: 0x8, addend: 0x0, symName: __ZNSt3__114__unwrap_rangeB7v160006IPKcS2_EENS_4pairIT0_S4_EET_S6_, symObjAddr: 0x2440, symBinAddr: 0x10000E110, symSize: 0x50 }
  - { offsetInCU: 0xADBF, offset: 0x2AA62, size: 0x8, addend: 0x0, symName: __ZNSt3__113__unwrap_iterB7v160006IPcNS_18__unwrap_iter_implIS1_Lb1EEELi0EEEDTclsrT0_8__unwrapclsr3stdE7declvalIT_EEEES5_, symObjAddr: 0x24D0, symBinAddr: 0x10000E1A0, symSize: 0x20 }
  - { offsetInCU: 0xAE03, offset: 0x2AAA6, size: 0x8, addend: 0x0, symName: __ZNSt3__19make_pairB7v160006IPKcPcEENS_4pairINS_18__unwrap_ref_decayIT_E4typeENS5_IT0_E4typeEEEOS6_OS9_, symObjAddr: 0x24F0, symBinAddr: 0x10000E1C0, symSize: 0x30 }
  - { offsetInCU: 0xAE52, offset: 0x2AAF5, size: 0x8, addend: 0x0, symName: __ZNSt3__114__rewrap_rangeB7v160006IPKcS2_EET_S3_T0_, symObjAddr: 0x2520, symBinAddr: 0x10000E1F0, symSize: 0x30 }
  - { offsetInCU: 0xAE9E, offset: 0x2AB41, size: 0x8, addend: 0x0, symName: __ZNSt3__113__rewrap_iterB7v160006IPcS1_NS_18__unwrap_iter_implIS1_Lb1EEEEET_S4_T0_, symObjAddr: 0x2550, symBinAddr: 0x10000E220, symSize: 0x40 }
  - { offsetInCU: 0xAEF3, offset: 0x2AB96, size: 0x8, addend: 0x0, symName: __ZNSt3__19make_pairB7v160006IPKcS2_EENS_4pairINS_18__unwrap_ref_decayIT_E4typeENS4_IT0_E4typeEEEOS5_OS8_, symObjAddr: 0x2590, symBinAddr: 0x10000E260, symSize: 0x30 }
  - { offsetInCU: 0xAF42, offset: 0x2ABE5, size: 0x8, addend: 0x0, symName: __ZNSt3__113__unwrap_iterB7v160006IPKcNS_18__unwrap_iter_implIS2_Lb1EEELi0EEEDTclsrT0_8__unwrapclsr3stdE7declvalIT_EEEES6_, symObjAddr: 0x25C0, symBinAddr: 0x10000E290, symSize: 0x20 }
  - { offsetInCU: 0xB0AD, offset: 0x2AD50, size: 0x8, addend: 0x0, symName: __ZNSt3__119__copy_trivial_implB7v160006IKccEENS_4pairIPT_PT0_EES4_S4_S6_, symObjAddr: 0x2660, symBinAddr: 0x10000E330, symSize: 0x70 }
  - { offsetInCU: 0xB115, offset: 0x2ADB8, size: 0x8, addend: 0x0, symName: __ZNSt3__19make_pairB7v160006IRPKcPcEENS_4pairINS_18__unwrap_ref_decayIT_E4typeENS6_IT0_E4typeEEEOS7_OSA_, symObjAddr: 0x26D0, symBinAddr: 0x10000E3A0, symSize: 0x30 }
  - { offsetInCU: 0xB1B7, offset: 0x2AE5A, size: 0x8, addend: 0x0, symName: __ZNSt3__113__rewrap_iterB7v160006IPKcS2_NS_18__unwrap_iter_implIS2_Lb1EEEEET_S5_T0_, symObjAddr: 0x27E0, symBinAddr: 0x10000E4B0, symSize: 0x40 }
  - { offsetInCU: 0xB20C, offset: 0x2AEAF, size: 0x8, addend: 0x0, symName: __ZNSt3__16fill_nB7v160006IPcmcEET_S2_T0_RKT1_, symObjAddr: 0x28A0, symBinAddr: 0x10000E570, symSize: 0x40 }
  - { offsetInCU: 0xB26F, offset: 0x2AF12, size: 0x8, addend: 0x0, symName: __ZNSt3__18__fill_nB7v160006IPcmcEET_S2_T0_RKT1_, symObjAddr: 0x28E0, symBinAddr: 0x10000E5B0, symSize: 0x50 }
  - { offsetInCU: 0xB2D2, offset: 0x2AF75, size: 0x8, addend: 0x0, symName: __ZNSt3__121__convert_to_integralB7v160006Em, symObjAddr: 0x2930, symBinAddr: 0x10000E600, symSize: 0xE }
  - { offsetInCU: 0xD79F, offset: 0x2D442, size: 0x8, addend: 0x0, symName: __ZN6ShaderC2Ev, symObjAddr: 0x0, symBinAddr: 0x10000CF90, symSize: 0x20 }
  - { offsetInCU: 0xD7CB, offset: 0x2D46E, size: 0x8, addend: 0x0, symName: __ZN6ShaderC1Ev, symObjAddr: 0x20, symBinAddr: 0x10000CFB0, symSize: 0x20 }
  - { offsetInCU: 0xD7F7, offset: 0x2D49A, size: 0x8, addend: 0x0, symName: __ZN6ShaderD2Ev, symObjAddr: 0x40, symBinAddr: 0x10000CFD0, symSize: 0x30 }
  - { offsetInCU: 0xD823, offset: 0x2D4C6, size: 0x8, addend: 0x0, symName: __ZN6Shader11ClearShaderEv, symObjAddr: 0x70, symBinAddr: 0x10000D000, symSize: 0x40 }
  - { offsetInCU: 0xD84B, offset: 0x2D4EE, size: 0x8, addend: 0x0, symName: __ZN6ShaderD1Ev, symObjAddr: 0xC0, symBinAddr: 0x10000D040, symSize: 0x20 }
  - { offsetInCU: 0xD877, offset: 0x2D51A, size: 0x8, addend: 0x0, symName: __ZN6Shader15CreateFromFilesEPKcS1_, symObjAddr: 0xE0, symBinAddr: 0x10000D060, symSize: 0xC0 }
  - { offsetInCU: 0xD8F6, offset: 0x2D599, size: 0x8, addend: 0x0, symName: __ZN6Shader8ReadFileEPKc, symObjAddr: 0x1A0, symBinAddr: 0x10000D120, symSize: 0x2B0 }
  - { offsetInCU: 0xD95B, offset: 0x2D5FE, size: 0x8, addend: 0x0, symName: __ZN6Shader14CompileShadersEPKcS1_, symObjAddr: 0x470, symBinAddr: 0x10000D3D0, symSize: 0x1E0 }
  - { offsetInCU: 0xDABD, offset: 0x2D760, size: 0x8, addend: 0x0, symName: __ZNSt3__112basic_stringIcNS_11char_traitsIcEENS_9allocatorIcEEEC1B7v160006IDnEEPKc, symObjAddr: 0x800, symBinAddr: 0x10000D5B0, symSize: 0x30 }
  - { offsetInCU: 0xDAFB, offset: 0x2D79E, size: 0x8, addend: 0x0, symName: __ZNKSt3__19basic_iosIcNS_11char_traitsIcEEE3eofB7v160006Ev, symObjAddr: 0x830, symBinAddr: 0x10000D5E0, symSize: 0x20 }
  - { offsetInCU: 0xDB21, offset: 0x2D7C4, size: 0x8, addend: 0x0, symName: __ZNSt3__112basic_stringIcNS_11char_traitsIcEENS_9allocatorIcEEE6appendB7v160006ERKS5_, symObjAddr: 0x8A0, symBinAddr: 0x10000D600, symSize: 0x50 }
  - { offsetInCU: 0xDB56, offset: 0x2D7F9, size: 0x8, addend: 0x0, symName: __ZNSt3__112basic_stringIcNS_11char_traitsIcEENS_9allocatorIcEEEC1B7v160006EOS5_, symObjAddr: 0xA40, symBinAddr: 0x10000D750, symSize: 0x30 }
  - { offsetInCU: 0xDB94, offset: 0x2D837, size: 0x8, addend: 0x0, symName: __ZN6Shader9UseShaderEv, symObjAddr: 0xAB0, symBinAddr: 0x10000D780, symSize: 0x30 }
  - { offsetInCU: 0xDBBC, offset: 0x2D85F, size: 0x8, addend: 0x0, symName: __ZN6Shader16CreateFromStringEPKcS1_, symObjAddr: 0xAE0, symBinAddr: 0x10000D7B0, symSize: 0x30 }
  - { offsetInCU: 0xDC00, offset: 0x2D8A3, size: 0x8, addend: 0x0, symName: __ZN6Shader9AddShaderEjPKcj, symObjAddr: 0xB10, symBinAddr: 0x10000D7E0, symSize: 0x170 }
  - { offsetInCU: 0xDCA5, offset: 0x2D948, size: 0x8, addend: 0x0, symName: __ZNSt3__112basic_stringIcNS_11char_traitsIcEENS_9allocatorIcEEEC2B7v160006EOS5_, symObjAddr: 0xEA0, symBinAddr: 0x10000D950, symSize: 0x80 }
  - { offsetInCU: 0xDCDE, offset: 0x2D981, size: 0x8, addend: 0x0, symName: __ZNSt3__112basic_stringIcNS_11char_traitsIcEENS_9allocatorIcEEEC2B7v160006IDnEEPKc, symObjAddr: 0x1210, symBinAddr: 0x10000D9E0, symSize: 0x60 }
  - { offsetInCU: 0xDD1C, offset: 0x2D9BF, size: 0x8, addend: 0x0, symName: __ZNKSt3__18ios_base3eofB7v160006Ev, symObjAddr: 0x12C0, symBinAddr: 0x10000DA40, symSize: 0x20 }
  - { offsetInCU: 0xDD71, offset: 0x2DA14, size: 0x8, addend: 0x0, symName: __ZNSt3__116allocator_traitsINS_9allocatorIcEEE37select_on_container_copy_constructionB7v160006IS2_vvEES2_RKS2_, symObjAddr: 0x1B40, symBinAddr: 0x10000DA60, symSize: 0x10 }
  - { offsetInCU: 0xDDA0, offset: 0x2DA43, size: 0x8, addend: 0x0, symName: __ZNKSt3__112basic_stringIcNS_11char_traitsIcEENS_9allocatorIcEEE13get_allocatorB7v160006Ev, symObjAddr: 0x1B50, symBinAddr: 0x10000DA70, symSize: 0x20 }
  - { offsetInCU: 0xDDC6, offset: 0x2DA69, size: 0x8, addend: 0x0, symName: __ZNSt3__112basic_stringIcNS_11char_traitsIcEENS_9allocatorIcEEEC1B7v160006ENS_24__uninitialized_size_tagEmRKS4_, symObjAddr: 0x1B70, symBinAddr: 0x10000DA90, symSize: 0x30 }
  - { offsetInCU: 0xDE19, offset: 0x2DABC, size: 0x8, addend: 0x0, symName: __ZNSt3__111char_traitsIcE4copyEPcPKcm, symObjAddr: 0x1C00, symBinAddr: 0x10000DAC0, symSize: 0x70 }
  - { offsetInCU: 0xDE58, offset: 0x2DAFB, size: 0x8, addend: 0x0, symName: __ZNSt3__111char_traitsIcE6assignEPcmc, symObjAddr: 0x1C70, symBinAddr: 0x10000DB30, symSize: 0x40 }
  - { offsetInCU: 0xDE97, offset: 0x2DB3A, size: 0x8, addend: 0x0, symName: __ZNSt3__112basic_stringIcNS_11char_traitsIcEENS_9allocatorIcEEEC2B7v160006ENS_24__uninitialized_size_tagEmRKS4_, symObjAddr: 0x1CB0, symBinAddr: 0x10000DB70, symSize: 0x120 }
  - { offsetInCU: 0xDF18, offset: 0x2DBBB, size: 0x8, addend: 0x0, symName: __ZNSt3__117__compressed_pairINS_12basic_stringIcNS_11char_traitsIcEENS_9allocatorIcEEE5__repES5_EC1B7v160006INS_18__default_init_tagERKS5_EEOT_OT0_, symObjAddr: 0x1DD0, symBinAddr: 0x10000DC90, symSize: 0x30 }
  - { offsetInCU: 0xDF70, offset: 0x2DC13, size: 0x8, addend: 0x0, symName: __ZNKSt3__112basic_stringIcNS_11char_traitsIcEENS_9allocatorIcEEE20__throw_length_errorB7v160006Ev, symObjAddr: 0x1E00, symBinAddr: 0x10000DCC0, symSize: 0x20 }
  - { offsetInCU: 0xDF96, offset: 0x2DC39, size: 0x8, addend: 0x0, symName: __ZNSt3__112basic_stringIcNS_11char_traitsIcEENS_9allocatorIcEEE13__fits_in_ssoB7v160006Em, symObjAddr: 0x1E20, symBinAddr: 0x10000DCE0, symSize: 0x20 }
  - { offsetInCU: 0xDFBA, offset: 0x2DC5D, size: 0x8, addend: 0x0, symName: __ZNSt3__112basic_stringIcNS_11char_traitsIcEENS_9allocatorIcEEE11__recommendB7v160006Em, symObjAddr: 0x1E40, symBinAddr: 0x10000DD00, symSize: 0x70 }
  - { offsetInCU: 0xDFED, offset: 0x2DC90, size: 0x8, addend: 0x0, symName: __ZNSt3__116allocator_traitsINS_9allocatorIcEEE8allocateB7v160006ERS2_m, symObjAddr: 0x1EB0, symBinAddr: 0x10000DD70, symSize: 0x30 }
  - { offsetInCU: 0xE020, offset: 0x2DCC3, size: 0x8, addend: 0x0, symName: __ZNSt3__112basic_stringIcNS_11char_traitsIcEENS_9allocatorIcEEE7__allocB7v160006Ev, symObjAddr: 0x1EE0, symBinAddr: 0x10000DDA0, symSize: 0x20 }
  - { offsetInCU: 0xE046, offset: 0x2DCE9, size: 0x8, addend: 0x0, symName: __ZNSt3__112basic_stringIcNS_11char_traitsIcEENS_9allocatorIcEEE16__begin_lifetimeB7v160006EPcm, symObjAddr: 0x1F00, symBinAddr: 0x10000DDC0, symSize: 0x10 }
  - { offsetInCU: 0xE079, offset: 0x2DD1C, size: 0x8, addend: 0x0, symName: __ZNSt3__112basic_stringIcNS_11char_traitsIcEENS_9allocatorIcEEE14__set_long_capB7v160006Em, symObjAddr: 0x1F10, symBinAddr: 0x10000DDD0, symSize: 0x70 }
  - { offsetInCU: 0xE0AE, offset: 0x2DD51, size: 0x8, addend: 0x0, symName: __ZNSt3__112basic_stringIcNS_11char_traitsIcEENS_9allocatorIcEEE18__set_long_pointerB7v160006EPc, symObjAddr: 0x1F80, symBinAddr: 0x10000DE40, symSize: 0x30 }
  - { offsetInCU: 0xE0E3, offset: 0x2DD86, size: 0x8, addend: 0x0, symName: __ZNSt3__117__compressed_pairINS_12basic_stringIcNS_11char_traitsIcEENS_9allocatorIcEEE5__repES5_EC2B7v160006INS_18__default_init_tagERKS5_EEOT_OT0_, symObjAddr: 0x1FB0, symBinAddr: 0x10000DE70, symSize: 0x40 }
  - { offsetInCU: 0xE13B, offset: 0x2DDDE, size: 0x8, addend: 0x0, symName: __ZNSt3__122__compressed_pair_elemINS_9allocatorIcEELi1ELb1EEC2B7v160006IRKS2_vEEOT_, symObjAddr: 0x1FF0, symBinAddr: 0x10000DEB0, symSize: 0x10 }
  - { offsetInCU: 0xE17D, offset: 0x2DE20, size: 0x8, addend: 0x0, symName: __ZNSt3__112basic_stringIcNS_11char_traitsIcEENS_9allocatorIcEEE10__align_itB7v160006ILm16EEEmm, symObjAddr: 0x20E0, symBinAddr: 0x10000DEC0, symSize: 0x20 }
  - { offsetInCU: 0xE1AB, offset: 0x2DE4E, size: 0x8, addend: 0x0, symName: __ZNSt3__19allocatorIcE8allocateB7v160006Em, symObjAddr: 0x2100, symBinAddr: 0x10000DEE0, symSize: 0x50 }
  - { offsetInCU: 0xE1DF, offset: 0x2DE82, size: 0x8, addend: 0x0, symName: __ZNSt3__117__compressed_pairINS_12basic_stringIcNS_11char_traitsIcEENS_9allocatorIcEEE5__repES5_E6secondB7v160006Ev, symObjAddr: 0x2260, symBinAddr: 0x10000DF30, symSize: 0x20 }
  - { offsetInCU: 0xE205, offset: 0x2DEA8, size: 0x8, addend: 0x0, symName: __ZNSt3__122__compressed_pair_elemINS_9allocatorIcEELi1ELb1EE5__getB7v160006Ev, symObjAddr: 0x2280, symBinAddr: 0x10000DF50, symSize: 0x10 }
  - { offsetInCU: 0xE24E, offset: 0x2DEF1, size: 0x8, addend: 0x0, symName: __ZNKSt3__114__copy_trivialclB7v160006IKccLi0EEENS_4pairIPT_PT0_EES5_S5_S7_, symObjAddr: 0x2490, symBinAddr: 0x10000E160, symSize: 0x40 }
  - { offsetInCU: 0xE2D4, offset: 0x2DF77, size: 0x8, addend: 0x0, symName: __ZNSt3__14pairIPKcS2_EC1B7v160006IS2_S2_LPv0EEEOT_OT0_, symObjAddr: 0x25E0, symBinAddr: 0x10000E2B0, symSize: 0x30 }
  - { offsetInCU: 0xE332, offset: 0x2DFD5, size: 0x8, addend: 0x0, symName: __ZNSt3__14pairIPKcS2_EC2B7v160006IS2_S2_LPv0EEEOT_OT0_, symObjAddr: 0x2610, symBinAddr: 0x10000E2E0, symSize: 0x30 }
  - { offsetInCU: 0xE390, offset: 0x2E033, size: 0x8, addend: 0x0, symName: __ZNSt3__118__unwrap_iter_implIPKcLb1EE8__unwrapB7v160006ES2_, symObjAddr: 0x2640, symBinAddr: 0x10000E310, symSize: 0x20 }
  - { offsetInCU: 0xE3BD, offset: 0x2E060, size: 0x8, addend: 0x0, symName: __ZNSt3__14pairIPKcPcEC1B7v160006IRS2_S3_LPv0EEEOT_OT0_, symObjAddr: 0x2700, symBinAddr: 0x10000E3D0, symSize: 0x30 }
  - { offsetInCU: 0xE41B, offset: 0x2E0BE, size: 0x8, addend: 0x0, symName: __ZNSt3__14pairIPKcPcEC2B7v160006IRS2_S3_LPv0EEEOT_OT0_, symObjAddr: 0x2730, symBinAddr: 0x10000E400, symSize: 0x30 }
  - { offsetInCU: 0xE479, offset: 0x2E11C, size: 0x8, addend: 0x0, symName: __ZNSt3__118__unwrap_iter_implIPcLb1EE8__unwrapB7v160006ES1_, symObjAddr: 0x2760, symBinAddr: 0x10000E430, symSize: 0x20 }
  - { offsetInCU: 0xE49C, offset: 0x2E13F, size: 0x8, addend: 0x0, symName: __ZNSt3__14pairIPKcPcEC1B7v160006IS2_S3_LPv0EEEOT_OT0_, symObjAddr: 0x2780, symBinAddr: 0x10000E450, symSize: 0x30 }
  - { offsetInCU: 0xE4FA, offset: 0x2E19D, size: 0x8, addend: 0x0, symName: __ZNSt3__14pairIPKcPcEC2B7v160006IS2_S3_LPv0EEEOT_OT0_, symObjAddr: 0x27B0, symBinAddr: 0x10000E480, symSize: 0x30 }
  - { offsetInCU: 0xE558, offset: 0x2E1FB, size: 0x8, addend: 0x0, symName: __ZNSt3__118__unwrap_iter_implIPKcLb1EE8__rewrapB7v160006ES2_S2_, symObjAddr: 0x2820, symBinAddr: 0x10000E4F0, symSize: 0x40 }
  - { offsetInCU: 0xE589, offset: 0x2E22C, size: 0x8, addend: 0x0, symName: __ZNSt3__118__unwrap_iter_implIPcLb1EE8__rewrapB7v160006ES1_S1_, symObjAddr: 0x2860, symBinAddr: 0x10000E530, symSize: 0x40 }
  - { offsetInCU: 0x2CE, offset: 0x2E59F, size: 0x8, addend: 0x0, symName: __ZN6WindowC2Ev, symObjAddr: 0x0, symBinAddr: 0x10000E610, symSize: 0x30 }
  - { offsetInCU: 0x2FA, offset: 0x2E5CB, size: 0x8, addend: 0x0, symName: __ZN6WindowC1Ev, symObjAddr: 0x30, symBinAddr: 0x10000E640, symSize: 0x20 }
  - { offsetInCU: 0x326, offset: 0x2E5F7, size: 0x8, addend: 0x0, symName: __ZN6WindowC2Eiiii, symObjAddr: 0x50, symBinAddr: 0x10000E660, symSize: 0x40 }
  - { offsetInCU: 0x38A, offset: 0x2E65B, size: 0x8, addend: 0x0, symName: __ZN6WindowC1Eiiii, symObjAddr: 0x90, symBinAddr: 0x10000E6A0, symSize: 0x40 }
  - { offsetInCU: 0x3EE, offset: 0x2E6BF, size: 0x8, addend: 0x0, symName: __ZN6WindowD2Ev, symObjAddr: 0xD0, symBinAddr: 0x10000E6E0, symSize: 0x40 }
  - { offsetInCU: 0x41A, offset: 0x2E6EB, size: 0x8, addend: 0x0, symName: __ZN6WindowD1Ev, symObjAddr: 0x120, symBinAddr: 0x10000E720, symSize: 0x20 }
  - { offsetInCU: 0x446, offset: 0x2E717, size: 0x8, addend: 0x0, symName: __ZN6Window10initialiseEv, symObjAddr: 0x140, symBinAddr: 0x10000E740, symSize: 0x171 }
  - { offsetInCU: 0x26, offset: 0x2E76A, size: 0x8, addend: 0x0, symName: _stbi_failure_reason, symObjAddr: 0x0, symBinAddr: 0x10000E8C0, symSize: 0x20 }
  - { offsetInCU: 0x59, offset: 0x2E79D, size: 0x8, addend: 0x0, symName: __ZL36stbi__vertically_flip_on_load_global, symObjAddr: 0x3F600, symBinAddr: 0x1000381A0, symSize: 0x0 }
  - { offsetInCU: 0x7B, offset: 0x2E7BF, size: 0x8, addend: 0x0, symName: __ZL21stbi__stdio_callbacks, symObjAddr: 0x1CA50, symBinAddr: 0x100038010, symSize: 0x0 }
  - { offsetInCU: 0x107, offset: 0x2E84B, size: 0x8, addend: 0x0, symName: __ZL22stbi__check_png_headerP13stbi__context, symObjAddr: 0x69F0, symBinAddr: 0x1000152B0, symSize: 0x80 }
  - { offsetInCU: 0x133, offset: 0x2E877, size: 0x8, addend: 0x0, symName: __ZZL22stbi__check_png_headerP13stbi__contextE7png_sig, symObjAddr: 0x1CAF0, symBinAddr: 0x100033400, symSize: 0x0 }
  - { offsetInCU: 0x180, offset: 0x2E8C4, size: 0x8, addend: 0x0, symName: __ZL20stbi__parse_png_fileP9stbi__pngii, symObjAddr: 0x6E70, symBinAddr: 0x100015730, symSize: 0x1070 }
  - { offsetInCU: 0x1AC, offset: 0x2E8F0, size: 0x8, addend: 0x0, symName: __ZZL20stbi__parse_png_fileP9stbi__pngiiE13invalid_chunk, symObjAddr: 0x1CA70, symBinAddr: 0x100038030, symSize: 0x0 }
  - { offsetInCU: 0x398, offset: 0x2EADC, size: 0x8, addend: 0x0, symName: __ZL23stbi__depth_scale_table, symObjAddr: 0x1CAF8, symBinAddr: 0x100033408, symSize: 0x0 }
  - { offsetInCU: 0x3BF, offset: 0x2EB03, size: 0x8, addend: 0x0, symName: __ZL16first_row_filter, symObjAddr: 0x1CA89, symBinAddr: 0x100038049, symSize: 0x0 }
  - { offsetInCU: 0x3D9, offset: 0x2EB1D, size: 0x8, addend: 0x0, symName: __ZL17stbi__shiftsignedjii, symObjAddr: 0xBCD0, symBinAddr: 0x10001A590, symSize: 0x100 }
  - { offsetInCU: 0x405, offset: 0x2EB49, size: 0x8, addend: 0x0, symName: __ZZL17stbi__shiftsignedjiiE9mul_table, symObjAddr: 0x1CA90, symBinAddr: 0x100038050, symSize: 0x0 }
  - { offsetInCU: 0x41C, offset: 0x2EB60, size: 0x8, addend: 0x0, symName: __ZZL17stbi__shiftsignedjiiE11shift_table, symObjAddr: 0x1CAC0, symBinAddr: 0x100038080, symSize: 0x0 }
  - { offsetInCU: 0x467, offset: 0x2EBAB, size: 0x8, addend: 0x0, symName: __ZL20stbi__process_markerP10stbi__jpegi, symObjAddr: 0x13E10, symBinAddr: 0x1000226D0, symSize: 0x720 }
  - { offsetInCU: 0x493, offset: 0x2EBD7, size: 0x8, addend: 0x0, symName: __ZZL20stbi__process_markerP10stbi__jpegiE3tag, symObjAddr: 0x1CBDF, symBinAddr: 0x1000334EF, symSize: 0x0 }
  - { offsetInCU: 0x4AA, offset: 0x2EBEE, size: 0x8, addend: 0x0, symName: __ZZL20stbi__process_markerP10stbi__jpegiE3tag_0, symObjAddr: 0x1CBE4, symBinAddr: 0x1000334F4, symSize: 0x0 }
  - { offsetInCU: 0x647, offset: 0x2ED8B, size: 0x8, addend: 0x0, symName: __ZL19stbi__jpeg_dezigzag, symObjAddr: 0x1CB90, symBinAddr: 0x1000334A0, symSize: 0x0 }
  - { offsetInCU: 0x661, offset: 0x2EDA5, size: 0x8, addend: 0x0, symName: __ZL26stbi__process_frame_headerP10stbi__jpegi, symObjAddr: 0x14530, symBinAddr: 0x100022DF0, symSize: 0xA00 }
  - { offsetInCU: 0x68D, offset: 0x2EDD1, size: 0x8, addend: 0x0, symName: __ZZL26stbi__process_frame_headerP10stbi__jpegiE3rgb, symObjAddr: 0x1CBEA, symBinAddr: 0x1000334FA, symSize: 0x0 }
  - { offsetInCU: 0x747, offset: 0x2EE8B, size: 0x8, addend: 0x0, symName: __ZL11stbi__bmask, symObjAddr: 0x1CBF0, symBinAddr: 0x100033500, symSize: 0x0 }
  - { offsetInCU: 0x77F, offset: 0x2EEC3, size: 0x8, addend: 0x0, symName: __ZL11stbi__jbias, symObjAddr: 0x1CC40, symBinAddr: 0x100033550, symSize: 0x0 }
  - { offsetInCU: 0x7AB, offset: 0x2EEEF, size: 0x8, addend: 0x0, symName: __ZL15stbi__l2h_gamma, symObjAddr: 0x1CA40, symBinAddr: 0x100038000, symSize: 0x0 }
  - { offsetInCU: 0x7CD, offset: 0x2EF11, size: 0x8, addend: 0x0, symName: __ZL15stbi__l2h_scale, symObjAddr: 0x1CA44, symBinAddr: 0x100038004, symSize: 0x0 }
  - { offsetInCU: 0x7E8, offset: 0x2EF2C, size: 0x8, addend: 0x0, symName: __ZL17stbi__h2l_gamma_i, symObjAddr: 0x1CA48, symBinAddr: 0x100038008, symSize: 0x0 }
  - { offsetInCU: 0x803, offset: 0x2EF47, size: 0x8, addend: 0x0, symName: __ZL17stbi__h2l_scale_i, symObjAddr: 0x1CA4C, symBinAddr: 0x10003800C, symSize: 0x0 }
  - { offsetInCU: 0x81E, offset: 0x2EF62, size: 0x8, addend: 0x0, symName: __ZL21stbi__zdefault_length, symObjAddr: 0x1CC80, symBinAddr: 0x100033590, symSize: 0x0 }
  - { offsetInCU: 0x847, offset: 0x2EF8B, size: 0x8, addend: 0x0, symName: __ZL23stbi__zdefault_distance, symObjAddr: 0x1CDA0, symBinAddr: 0x1000336B0, symSize: 0x0 }
  - { offsetInCU: 0x861, offset: 0x2EFA5, size: 0x8, addend: 0x0, symName: __ZL27stbi__compute_huffman_codesP10stbi__zbuf, symObjAddr: 0x1A510, symBinAddr: 0x100028DD0, symSize: 0x400 }
  - { offsetInCU: 0x88D, offset: 0x2EFD1, size: 0x8, addend: 0x0, symName: __ZZL27stbi__compute_huffman_codesP10stbi__zbufE15length_dezigzag, symObjAddr: 0x1CDC0, symBinAddr: 0x1000336D0, symSize: 0x0 }
  - { offsetInCU: 0x9AB, offset: 0x2F0EF, size: 0x8, addend: 0x0, symName: __ZL18stbi__zlength_base, symObjAddr: 0x1CDE0, symBinAddr: 0x1000336F0, symSize: 0x0 }
  - { offsetInCU: 0x9D2, offset: 0x2F116, size: 0x8, addend: 0x0, symName: __ZL19stbi__zlength_extra, symObjAddr: 0x1CE60, symBinAddr: 0x100033770, symSize: 0x0 }
  - { offsetInCU: 0x9ED, offset: 0x2F131, size: 0x8, addend: 0x0, symName: __ZL16stbi__zdist_base, symObjAddr: 0x1CEE0, symBinAddr: 0x1000337F0, symSize: 0x0 }
  - { offsetInCU: 0xA14, offset: 0x2F158, size: 0x8, addend: 0x0, symName: __ZL17stbi__zdist_extra, symObjAddr: 0x1CF60, symBinAddr: 0x100033870, symSize: 0x0 }
  - { offsetInCU: 0xA2F, offset: 0x2F173, size: 0x8, addend: 0x0, symName: __ZL34stbi__unpremultiply_on_load_global, symObjAddr: 0x3F604, symBinAddr: 0x1000381A4, symSize: 0x0 }
  - { offsetInCU: 0xA4A, offset: 0x2F18E, size: 0x8, addend: 0x0, symName: __ZL27stbi__de_iphone_flag_global, symObjAddr: 0x3F608, symBinAddr: 0x1000381A8, symSize: 0x0 }
  - { offsetInCU: 0x1424, offset: 0x2FB68, size: 0x8, addend: 0x0, symName: _stbi_failure_reason, symObjAddr: 0x0, symBinAddr: 0x10000E8C0, symSize: 0x20 }
  - { offsetInCU: 0x143F, offset: 0x2FB83, size: 0x8, addend: 0x0, symName: _stbi_image_free, symObjAddr: 0x20, symBinAddr: 0x10000E8E0, symSize: 0x20 }
  - { offsetInCU: 0x1466, offset: 0x2FBAA, size: 0x8, addend: 0x0, symName: _stbi_set_flip_vertically_on_load, symObjAddr: 0x40, symBinAddr: 0x10000E900, symSize: 0x20 }
  - { offsetInCU: 0x148D, offset: 0x2FBD1, size: 0x8, addend: 0x0, symName: _stbi_set_flip_vertically_on_load_thread, symObjAddr: 0x60, symBinAddr: 0x10000E920, symSize: 0x30 }
  - { offsetInCU: 0x14B4, offset: 0x2FBF8, size: 0x8, addend: 0x0, symName: _stbi_load, symObjAddr: 0x90, symBinAddr: 0x10000E950, symSize: 0xA0 }
  - { offsetInCU: 0x1539, offset: 0x2FC7D, size: 0x8, addend: 0x0, symName: __ZL11stbi__fopenPKcS0_, symObjAddr: 0x130, symBinAddr: 0x10000E9F0, symSize: 0x30 }
  - { offsetInCU: 0x1586, offset: 0x2FCCA, size: 0x8, addend: 0x0, symName: __ZL9stbi__errPKc, symObjAddr: 0x160, symBinAddr: 0x10000EA20, symSize: 0x30 }
  - { offsetInCU: 0x15B5, offset: 0x2FCF9, size: 0x8, addend: 0x0, symName: _stbi_load_from_file, symObjAddr: 0x190, symBinAddr: 0x10000EA50, symSize: 0xF0 }
  - { offsetInCU: 0x1641, offset: 0x2FD85, size: 0x8, addend: 0x0, symName: __ZL16stbi__start_fileP13stbi__contextP7__sFILE, symObjAddr: 0x280, symBinAddr: 0x10000EB40, symSize: 0x30 }
  - { offsetInCU: 0x167B, offset: 0x2FDBF, size: 0x8, addend: 0x0, symName: __ZL31stbi__load_and_postprocess_8bitP13stbi__contextPiS1_S1_i, symObjAddr: 0x2B0, symBinAddr: 0x10000EB70, symSize: 0x1A0 }
  - { offsetInCU: 0x1722, offset: 0x2FE66, size: 0x8, addend: 0x0, symName: _stbi_load_from_file_16, symObjAddr: 0x450, symBinAddr: 0x10000ED10, symSize: 0xF0 }
  - { offsetInCU: 0x17AE, offset: 0x2FEF2, size: 0x8, addend: 0x0, symName: __ZL32stbi__load_and_postprocess_16bitP13stbi__contextPiS1_S1_i, symObjAddr: 0x540, symBinAddr: 0x10000EE00, symSize: 0x1A0 }
  - { offsetInCU: 0x1855, offset: 0x2FF99, size: 0x8, addend: 0x0, symName: _stbi_load_16, symObjAddr: 0x6E0, symBinAddr: 0x10000EFA0, symSize: 0xA0 }
  - { offsetInCU: 0x18DA, offset: 0x3001E, size: 0x8, addend: 0x0, symName: _stbi_load_16_from_memory, symObjAddr: 0x780, symBinAddr: 0x10000F040, symSize: 0xC0 }
  - { offsetInCU: 0x1966, offset: 0x300AA, size: 0x8, addend: 0x0, symName: __ZL15stbi__start_memP13stbi__contextPKhi, symObjAddr: 0x840, symBinAddr: 0x10000F100, symSize: 0x80 }
  - { offsetInCU: 0x19AF, offset: 0x300F3, size: 0x8, addend: 0x0, symName: _stbi_load_16_from_callbacks, symObjAddr: 0x8C0, symBinAddr: 0x10000F180, symSize: 0xC0 }
  - { offsetInCU: 0x1A3B, offset: 0x3017F, size: 0x8, addend: 0x0, symName: __ZL21stbi__start_callbacksP13stbi__contextP17stbi_io_callbacksPv, symObjAddr: 0x980, symBinAddr: 0x10000F240, symSize: 0xB0 }
  - { offsetInCU: 0x1A84, offset: 0x301C8, size: 0x8, addend: 0x0, symName: _stbi_load_from_memory, symObjAddr: 0xA30, symBinAddr: 0x10000F2F0, symSize: 0xC0 }
  - { offsetInCU: 0x1B10, offset: 0x30254, size: 0x8, addend: 0x0, symName: _stbi_load_from_callbacks, symObjAddr: 0xAF0, symBinAddr: 0x10000F3B0, symSize: 0xC0 }
  - { offsetInCU: 0x1B9C, offset: 0x302E0, size: 0x8, addend: 0x0, symName: _stbi_load_gif_from_memory, symObjAddr: 0xBB0, symBinAddr: 0x10000F470, symSize: 0x150 }
  - { offsetInCU: 0x1C56, offset: 0x3039A, size: 0x8, addend: 0x0, symName: __ZL19stbi__load_gif_mainP13stbi__contextPPiS1_S1_S1_S1_i, symObjAddr: 0xD00, symBinAddr: 0x10000F5C0, symSize: 0x3D0 }
  - { offsetInCU: 0x1DAE, offset: 0x304F2, size: 0x8, addend: 0x0, symName: __ZL26stbi__vertical_flip_slicesPviiii, symObjAddr: 0x10D0, symBinAddr: 0x10000F990, symSize: 0x80 }
  - { offsetInCU: 0x1E42, offset: 0x30586, size: 0x8, addend: 0x0, symName: _stbi_loadf_from_memory, symObjAddr: 0x1150, symBinAddr: 0x10000FA10, symSize: 0xC0 }
  - { offsetInCU: 0x1ECE, offset: 0x30612, size: 0x8, addend: 0x0, symName: __ZL16stbi__loadf_mainP13stbi__contextPiS1_S1_i, symObjAddr: 0x1210, symBinAddr: 0x10000FAD0, symSize: 0x120 }
  - { offsetInCU: 0x1F76, offset: 0x306BA, size: 0x8, addend: 0x0, symName: _stbi_loadf_from_callbacks, symObjAddr: 0x1330, symBinAddr: 0x10000FBF0, symSize: 0xC0 }
  - { offsetInCU: 0x2002, offset: 0x30746, size: 0x8, addend: 0x0, symName: _stbi_loadf, symObjAddr: 0x13F0, symBinAddr: 0x10000FCB0, symSize: 0xA0 }
  - { offsetInCU: 0x2087, offset: 0x307CB, size: 0x8, addend: 0x0, symName: _stbi_loadf_from_file, symObjAddr: 0x1490, symBinAddr: 0x10000FD50, symSize: 0xB0 }
  - { offsetInCU: 0x2103, offset: 0x30847, size: 0x8, addend: 0x0, symName: _stbi_is_hdr_from_memory, symObjAddr: 0x1540, symBinAddr: 0x10000FE00, symSize: 0x80 }
  - { offsetInCU: 0x214F, offset: 0x30893, size: 0x8, addend: 0x0, symName: __ZL14stbi__hdr_testP13stbi__context, symObjAddr: 0x15C0, symBinAddr: 0x10000FE80, symSize: 0x60 }
  - { offsetInCU: 0x218D, offset: 0x308D1, size: 0x8, addend: 0x0, symName: _stbi_is_hdr, symObjAddr: 0x1620, symBinAddr: 0x10000FEE0, symSize: 0x50 }
  - { offsetInCU: 0x21D6, offset: 0x3091A, size: 0x8, addend: 0x0, symName: _stbi_is_hdr_from_file, symObjAddr: 0x1670, symBinAddr: 0x10000FF30, symSize: 0xB0 }
  - { offsetInCU: 0x2232, offset: 0x30976, size: 0x8, addend: 0x0, symName: _stbi_is_hdr_from_callbacks, symObjAddr: 0x1720, symBinAddr: 0x10000FFE0, symSize: 0x80 }
  - { offsetInCU: 0x227E, offset: 0x309C2, size: 0x8, addend: 0x0, symName: _stbi_ldr_to_hdr_gamma, symObjAddr: 0x17A0, symBinAddr: 0x100010060, symSize: 0x20 }
  - { offsetInCU: 0x22A5, offset: 0x309E9, size: 0x8, addend: 0x0, symName: _stbi_ldr_to_hdr_scale, symObjAddr: 0x17C0, symBinAddr: 0x100010080, symSize: 0x20 }
  - { offsetInCU: 0x22CC, offset: 0x30A10, size: 0x8, addend: 0x0, symName: _stbi_hdr_to_ldr_gamma, symObjAddr: 0x17E0, symBinAddr: 0x1000100A0, symSize: 0x20 }
  - { offsetInCU: 0x22F3, offset: 0x30A37, size: 0x8, addend: 0x0, symName: _stbi_hdr_to_ldr_scale, symObjAddr: 0x1800, symBinAddr: 0x1000100C0, symSize: 0x20 }
  - { offsetInCU: 0x231A, offset: 0x30A5E, size: 0x8, addend: 0x0, symName: _stbi_zlib_decode_malloc_guesssize, symObjAddr: 0x1820, symBinAddr: 0x1000100E0, symSize: 0x150 }
  - { offsetInCU: 0x2396, offset: 0x30ADA, size: 0x8, addend: 0x0, symName: __ZL12stbi__mallocm, symObjAddr: 0x1970, symBinAddr: 0x100010230, symSize: 0x20 }
  - { offsetInCU: 0x23C5, offset: 0x30B09, size: 0x8, addend: 0x0, symName: __ZL13stbi__do_zlibP10stbi__zbufPciii, symObjAddr: 0x1990, symBinAddr: 0x100010250, symSize: 0x70 }
  - { offsetInCU: 0x2430, offset: 0x30B74, size: 0x8, addend: 0x0, symName: _stbi_zlib_decode_malloc, symObjAddr: 0x1A00, symBinAddr: 0x1000102C0, symSize: 0x30 }
  - { offsetInCU: 0x2479, offset: 0x30BBD, size: 0x8, addend: 0x0, symName: _stbi_zlib_decode_malloc_guesssize_headerflag, symObjAddr: 0x1A30, symBinAddr: 0x1000102F0, symSize: 0x160 }
  - { offsetInCU: 0x2505, offset: 0x30C49, size: 0x8, addend: 0x0, symName: _stbi_zlib_decode_buffer, symObjAddr: 0x1B90, symBinAddr: 0x100010450, symSize: 0xF0 }
  - { offsetInCU: 0x2571, offset: 0x30CB5, size: 0x8, addend: 0x0, symName: _stbi_zlib_decode_noheader_malloc, symObjAddr: 0x1C80, symBinAddr: 0x100010540, symSize: 0x150 }
  - { offsetInCU: 0x25DD, offset: 0x30D21, size: 0x8, addend: 0x0, symName: _stbi_zlib_decode_noheader_buffer, symObjAddr: 0x1DD0, symBinAddr: 0x100010690, symSize: 0xF0 }
  - { offsetInCU: 0x2649, offset: 0x30D8D, size: 0x8, addend: 0x0, symName: _stbi_set_unpremultiply_on_load, symObjAddr: 0x1EC0, symBinAddr: 0x100010780, symSize: 0x20 }
  - { offsetInCU: 0x2670, offset: 0x30DB4, size: 0x8, addend: 0x0, symName: _stbi_convert_iphone_png_to_rgb, symObjAddr: 0x1EE0, symBinAddr: 0x1000107A0, symSize: 0x20 }
  - { offsetInCU: 0x2697, offset: 0x30DDB, size: 0x8, addend: 0x0, symName: __Z34stbi__unpremultiply_on_load_threadi, symObjAddr: 0x1F00, symBinAddr: 0x1000107C0, symSize: 0x30 }
  - { offsetInCU: 0x26C1, offset: 0x30E05, size: 0x8, addend: 0x0, symName: _stbi_convert_iphone_png_to_rgb_thread, symObjAddr: 0x1F30, symBinAddr: 0x1000107F0, symSize: 0x30 }
  - { offsetInCU: 0x26E8, offset: 0x30E2C, size: 0x8, addend: 0x0, symName: _stbi_info, symObjAddr: 0x1F60, symBinAddr: 0x100010820, symSize: 0x80 }
  - { offsetInCU: 0x275E, offset: 0x30EA2, size: 0x8, addend: 0x0, symName: _stbi_info_from_file, symObjAddr: 0x1FE0, symBinAddr: 0x1000108A0, symSize: 0xD0 }
  - { offsetInCU: 0x27EA, offset: 0x30F2E, size: 0x8, addend: 0x0, symName: __ZL15stbi__info_mainP13stbi__contextPiS1_S1_, symObjAddr: 0x20B0, symBinAddr: 0x100010970, symSize: 0x1B0 }
  - { offsetInCU: 0x2846, offset: 0x30F8A, size: 0x8, addend: 0x0, symName: _stbi_is_16_bit, symObjAddr: 0x2260, symBinAddr: 0x100010B20, symSize: 0x70 }
  - { offsetInCU: 0x288F, offset: 0x30FD3, size: 0x8, addend: 0x0, symName: _stbi_is_16_bit_from_file, symObjAddr: 0x22D0, symBinAddr: 0x100010B90, symSize: 0xB0 }
  - { offsetInCU: 0x28EB, offset: 0x3102F, size: 0x8, addend: 0x0, symName: __ZL16stbi__is_16_mainP13stbi__context, symObjAddr: 0x2380, symBinAddr: 0x100010C40, symSize: 0x80 }
  - { offsetInCU: 0x291A, offset: 0x3105E, size: 0x8, addend: 0x0, symName: _stbi_info_from_memory, symObjAddr: 0x2400, symBinAddr: 0x100010CC0, symSize: 0xB0 }
  - { offsetInCU: 0x2996, offset: 0x310DA, size: 0x8, addend: 0x0, symName: _stbi_info_from_callbacks, symObjAddr: 0x24B0, symBinAddr: 0x100010D70, symSize: 0xB0 }
  - { offsetInCU: 0x2A12, offset: 0x31156, size: 0x8, addend: 0x0, symName: _stbi_is_16_bit_from_memory, symObjAddr: 0x2560, symBinAddr: 0x100010E20, symSize: 0x80 }
  - { offsetInCU: 0x2A5E, offset: 0x311A2, size: 0x8, addend: 0x0, symName: _stbi_is_16_bit_from_callbacks, symObjAddr: 0x25E0, symBinAddr: 0x100010EA0, symSize: 0x80 }
  - { offsetInCU: 0x2AAA, offset: 0x311EE, size: 0x8, addend: 0x0, symName: __ZL16stbi__stdio_readPvPci, symObjAddr: 0x2660, symBinAddr: 0x100010F20, symSize: 0x30 }
  - { offsetInCU: 0x2AF7, offset: 0x3123B, size: 0x8, addend: 0x0, symName: __ZL16stbi__stdio_skipPvi, symObjAddr: 0x2690, symBinAddr: 0x100010F50, symSize: 0x50 }
  - { offsetInCU: 0x2B40, offset: 0x31284, size: 0x8, addend: 0x0, symName: __ZL15stbi__stdio_eofPv, symObjAddr: 0x26E0, symBinAddr: 0x100010FA0, symSize: 0x50 }
  - { offsetInCU: 0x2B6F, offset: 0x312B3, size: 0x8, addend: 0x0, symName: __ZL15stbi__load_mainP13stbi__contextPiS1_S1_iP17stbi__result_infoi, symObjAddr: 0x2730, symBinAddr: 0x100010FF0, symSize: 0x2D0 }
  - { offsetInCU: 0x2C15, offset: 0x31359, size: 0x8, addend: 0x0, symName: __ZL21stbi__convert_16_to_8Ptiii, symObjAddr: 0x2A00, symBinAddr: 0x1000112C0, symSize: 0xC0 }
  - { offsetInCU: 0x2C9E, offset: 0x313E2, size: 0x8, addend: 0x0, symName: __ZL19stbi__vertical_flipPviii, symObjAddr: 0x2AC0, symBinAddr: 0x100011380, symSize: 0x200 }
  - { offsetInCU: 0x2D96, offset: 0x314DA, size: 0x8, addend: 0x0, symName: __ZL14stbi__png_testP13stbi__context, symObjAddr: 0x2CC0, symBinAddr: 0x100011580, symSize: 0x30 }
  - { offsetInCU: 0x2DD4, offset: 0x31518, size: 0x8, addend: 0x0, symName: __ZL14stbi__png_loadP13stbi__contextPiS1_S1_iP17stbi__result_info, symObjAddr: 0x2CF0, symBinAddr: 0x1000115B0, symSize: 0x50 }
  - { offsetInCU: 0x2E5E, offset: 0x315A2, size: 0x8, addend: 0x0, symName: __ZL14stbi__bmp_testP13stbi__context, symObjAddr: 0x2D40, symBinAddr: 0x100011600, symSize: 0x30 }
  - { offsetInCU: 0x2E9C, offset: 0x315E0, size: 0x8, addend: 0x0, symName: __ZL14stbi__bmp_loadP13stbi__contextPiS1_S1_iP17stbi__result_info, symObjAddr: 0x2D70, symBinAddr: 0x100011630, symSize: 0x1300 }
  - { offsetInCU: 0x3208, offset: 0x3194C, size: 0x8, addend: 0x0, symName: __ZL14stbi__gif_testP13stbi__context, symObjAddr: 0x4070, symBinAddr: 0x100012930, symSize: 0x30 }
  - { offsetInCU: 0x3246, offset: 0x3198A, size: 0x8, addend: 0x0, symName: __ZL14stbi__gif_loadP13stbi__contextPiS1_S1_iP17stbi__result_info, symObjAddr: 0x40A0, symBinAddr: 0x100012960, symSize: 0x120 }
  - { offsetInCU: 0x32E0, offset: 0x31A24, size: 0x8, addend: 0x0, symName: __ZL14stbi__psd_testP13stbi__context, symObjAddr: 0x41C0, symBinAddr: 0x100012A80, symSize: 0x40 }
  - { offsetInCU: 0x331E, offset: 0x31A62, size: 0x8, addend: 0x0, symName: __ZL14stbi__psd_loadP13stbi__contextPiS1_S1_iP17stbi__result_infoi, symObjAddr: 0x4200, symBinAddr: 0x100012AC0, symSize: 0xA00 }
  - { offsetInCU: 0x35A3, offset: 0x31CE7, size: 0x8, addend: 0x0, symName: __ZL14stbi__pic_testP13stbi__context, symObjAddr: 0x4C00, symBinAddr: 0x1000134C0, symSize: 0x30 }
  - { offsetInCU: 0x35E1, offset: 0x31D25, size: 0x8, addend: 0x0, symName: __ZL14stbi__pic_loadP13stbi__contextPiS1_S1_iP17stbi__result_info, symObjAddr: 0x4C30, symBinAddr: 0x1000134F0, symSize: 0x240 }
  - { offsetInCU: 0x36AA, offset: 0x31DEE, size: 0x8, addend: 0x0, symName: __ZL15stbi__jpeg_testP13stbi__context, symObjAddr: 0x4E70, symBinAddr: 0x100013730, symSize: 0x80 }
  - { offsetInCU: 0x36F7, offset: 0x31E3B, size: 0x8, addend: 0x0, symName: __ZL15stbi__jpeg_loadP13stbi__contextPiS1_S1_iP17stbi__result_info, symObjAddr: 0x4EF0, symBinAddr: 0x1000137B0, symSize: 0xB0 }
  - { offsetInCU: 0x3790, offset: 0x31ED4, size: 0x8, addend: 0x0, symName: __ZL14stbi__pnm_testP13stbi__context, symObjAddr: 0x4FA0, symBinAddr: 0x100013860, symSize: 0x70 }
  - { offsetInCU: 0x37DD, offset: 0x31F21, size: 0x8, addend: 0x0, symName: __ZL14stbi__pnm_loadP13stbi__contextPiS1_S1_iP17stbi__result_info, symObjAddr: 0x5010, symBinAddr: 0x1000138D0, symSize: 0x260 }
  - { offsetInCU: 0x3866, offset: 0x31FAA, size: 0x8, addend: 0x0, symName: __ZL14stbi__hdr_loadP13stbi__contextPiS1_S1_iP17stbi__result_info, symObjAddr: 0x5270, symBinAddr: 0x100013B30, symSize: 0x9C0 }
  - { offsetInCU: 0x3A61, offset: 0x321A5, size: 0x8, addend: 0x0, symName: __ZL16stbi__hdr_to_ldrPfiii, symObjAddr: 0x5C30, symBinAddr: 0x1000144F0, symSize: 0x230 }
  - { offsetInCU: 0x3B33, offset: 0x32277, size: 0x8, addend: 0x0, symName: __ZL14stbi__tga_testP13stbi__context, symObjAddr: 0x5E60, symBinAddr: 0x100014720, symSize: 0x1C0 }
  - { offsetInCU: 0x3BA0, offset: 0x322E4, size: 0x8, addend: 0x0, symName: __ZL14stbi__tga_loadP13stbi__contextPiS1_S1_iP17stbi__result_info, symObjAddr: 0x6020, symBinAddr: 0x1000148E0, symSize: 0x9D0 }
  - { offsetInCU: 0x3E98, offset: 0x325DC, size: 0x8, addend: 0x0, symName: __ZL12stbi__rewindP13stbi__context, symObjAddr: 0x6A70, symBinAddr: 0x100015330, symSize: 0x40 }
  - { offsetInCU: 0x3EC3, offset: 0x32607, size: 0x8, addend: 0x0, symName: __ZL10stbi__get8P13stbi__context, symObjAddr: 0x6AB0, symBinAddr: 0x100015370, symSize: 0xA0 }
  - { offsetInCU: 0x3EF2, offset: 0x32636, size: 0x8, addend: 0x0, symName: __ZL19stbi__refill_bufferP13stbi__context, symObjAddr: 0x6B50, symBinAddr: 0x100015410, symSize: 0xE0 }
  - { offsetInCU: 0x3F2C, offset: 0x32670, size: 0x8, addend: 0x0, symName: __ZL12stbi__do_pngP9stbi__pngPiS1_S1_iP17stbi__result_info, symObjAddr: 0x6C30, symBinAddr: 0x1000154F0, symSize: 0x240 }
  - { offsetInCU: 0x3FB5, offset: 0x326F9, size: 0x8, addend: 0x0, symName: __ZL20stbi__convert_formatPhiijj, symObjAddr: 0x7EE0, symBinAddr: 0x1000167A0, symSize: 0x680 }
  - { offsetInCU: 0x4079, offset: 0x327BD, size: 0x8, addend: 0x0, symName: __ZL22stbi__convert_format16Ptiijj, symObjAddr: 0x8560, symBinAddr: 0x100016E20, symSize: 0x6C0 }
  - { offsetInCU: 0x413D, offset: 0x32881, size: 0x8, addend: 0x0, symName: __ZL22stbi__get_chunk_headerP13stbi__context, symObjAddr: 0x8C20, symBinAddr: 0x1000174E0, symSize: 0x30 }
  - { offsetInCU: 0x417B, offset: 0x328BF, size: 0x8, addend: 0x0, symName: __ZL10stbi__skipP13stbi__contexti, symObjAddr: 0x8C50, symBinAddr: 0x100017510, symSize: 0xE0 }
  - { offsetInCU: 0x41D2, offset: 0x32916, size: 0x8, addend: 0x0, symName: __ZL13stbi__get32beP13stbi__context, symObjAddr: 0x8D30, symBinAddr: 0x1000175F0, symSize: 0x40 }
  - { offsetInCU: 0x4210, offset: 0x32954, size: 0x8, addend: 0x0, symName: __ZL13stbi__get16beP13stbi__context, symObjAddr: 0x8D70, symBinAddr: 0x100017630, symSize: 0x40 }
  - { offsetInCU: 0x424E, offset: 0x32992, size: 0x8, addend: 0x0, symName: __ZL10stbi__getnP13stbi__contextPhi, symObjAddr: 0x8DB0, symBinAddr: 0x100017670, symSize: 0x140 }
  - { offsetInCU: 0x42E4, offset: 0x32A28, size: 0x8, addend: 0x0, symName: __ZL22stbi__create_png_imageP9stbi__pngPhjiiii, symObjAddr: 0x8EF0, symBinAddr: 0x1000177B0, symSize: 0x4E0 }
  - { offsetInCU: 0x448C, offset: 0x32BD0, size: 0x8, addend: 0x0, symName: __ZL28stbi__compute_transparency16P9stbi__pngPti, symObjAddr: 0x93D0, symBinAddr: 0x100017C90, symSize: 0x180 }
  - { offsetInCU: 0x4515, offset: 0x32C59, size: 0x8, addend: 0x0, symName: __ZL26stbi__compute_transparencyP9stbi__pngPhi, symObjAddr: 0x9550, symBinAddr: 0x100017E10, symSize: 0x180 }
  - { offsetInCU: 0x459E, offset: 0x32CE2, size: 0x8, addend: 0x0, symName: __ZL15stbi__de_iphoneP9stbi__png, symObjAddr: 0x96D0, symBinAddr: 0x100017F90, symSize: 0x250 }
  - { offsetInCU: 0x4688, offset: 0x32DCC, size: 0x8, addend: 0x0, symName: __ZL24stbi__expand_png_paletteP9stbi__pngPhii, symObjAddr: 0x9920, symBinAddr: 0x1000181E0, symSize: 0x1C0 }
  - { offsetInCU: 0x476B, offset: 0x32EAF, size: 0x8, addend: 0x0, symName: __ZL26stbi__create_png_image_rawP9stbi__pngPhjijjii, symObjAddr: 0x9AE0, symBinAddr: 0x1000183A0, symSize: 0x16F0 }
  - { offsetInCU: 0x49A5, offset: 0x330E9, size: 0x8, addend: 0x0, symName: __ZL17stbi__malloc_mad3iiii, symObjAddr: 0xB1D0, symBinAddr: 0x100019A90, symSize: 0x60 }
  - { offsetInCU: 0x4A01, offset: 0x33145, size: 0x8, addend: 0x0, symName: __ZL21stbi__mad3sizes_validiiii, symObjAddr: 0xB230, symBinAddr: 0x100019AF0, symSize: 0x80 }
  - { offsetInCU: 0x4A5D, offset: 0x331A1, size: 0x8, addend: 0x0, symName: __ZL11stbi__paethiii, symObjAddr: 0xB2B0, symBinAddr: 0x100019B70, symSize: 0x90 }
  - { offsetInCU: 0x4AE6, offset: 0x3322A, size: 0x8, addend: 0x0, symName: __ZL21stbi__mul2sizes_validii, symObjAddr: 0xB340, symBinAddr: 0x100019C00, symSize: 0x70 }
  - { offsetInCU: 0x4B24, offset: 0x33268, size: 0x8, addend: 0x0, symName: __ZL20stbi__addsizes_validii, symObjAddr: 0xB3B0, symBinAddr: 0x100019C70, symSize: 0x40 }
  - { offsetInCU: 0x4B62, offset: 0x332A6, size: 0x8, addend: 0x0, symName: __ZL17stbi__malloc_mad2iii, symObjAddr: 0xB3F0, symBinAddr: 0x100019CB0, symSize: 0x60 }
  - { offsetInCU: 0x4BAF, offset: 0x332F3, size: 0x8, addend: 0x0, symName: __ZL21stbi__mad2sizes_validiii, symObjAddr: 0xB450, symBinAddr: 0x100019D10, symSize: 0x60 }
  - { offsetInCU: 0x4BFC, offset: 0x33340, size: 0x8, addend: 0x0, symName: __ZL15stbi__compute_yiii, symObjAddr: 0xB4B0, symBinAddr: 0x100019D70, symSize: 0x30 }
  - { offsetInCU: 0x4C49, offset: 0x3338D, size: 0x8, addend: 0x0, symName: __ZL18stbi__compute_y_16iii, symObjAddr: 0xB4E0, symBinAddr: 0x100019DA0, symSize: 0x30 }
  - { offsetInCU: 0x4C96, offset: 0x333DA, size: 0x8, addend: 0x0, symName: __ZL18stbi__bmp_test_rawP13stbi__context, symObjAddr: 0xB510, symBinAddr: 0x100019DD0, symSize: 0xE0 }
  - { offsetInCU: 0x4CE3, offset: 0x33427, size: 0x8, addend: 0x0, symName: __ZL13stbi__get32leP13stbi__context, symObjAddr: 0xB5F0, symBinAddr: 0x100019EB0, symSize: 0x40 }
  - { offsetInCU: 0x4D21, offset: 0x33465, size: 0x8, addend: 0x0, symName: __ZL13stbi__get16leP13stbi__context, symObjAddr: 0xB630, symBinAddr: 0x100019EF0, symSize: 0x40 }
  - { offsetInCU: 0x4D5F, offset: 0x334A3, size: 0x8, addend: 0x0, symName: __ZL22stbi__bmp_parse_headerP13stbi__contextP14stbi__bmp_data, symObjAddr: 0xB670, symBinAddr: 0x100019F30, symSize: 0x520 }
  - { offsetInCU: 0x4DE6, offset: 0x3352A, size: 0x8, addend: 0x0, symName: __ZL14stbi__high_bitj, symObjAddr: 0xBB90, symBinAddr: 0x10001A450, symSize: 0xC0 }
  - { offsetInCU: 0x4E24, offset: 0x33568, size: 0x8, addend: 0x0, symName: __ZL14stbi__bitcountj, symObjAddr: 0xBC50, symBinAddr: 0x10001A510, symSize: 0x80 }
  - { offsetInCU: 0x4E53, offset: 0x33597, size: 0x8, addend: 0x0, symName: __ZL27stbi__bmp_set_mask_defaultsP14stbi__bmp_datai, symObjAddr: 0xBDD0, symBinAddr: 0x10001A690, symSize: 0xF0 }
  - { offsetInCU: 0x4E91, offset: 0x335D5, size: 0x8, addend: 0x0, symName: __ZL18stbi__gif_test_rawP13stbi__context, symObjAddr: 0xBEC0, symBinAddr: 0x10001A780, symSize: 0xD0 }
  - { offsetInCU: 0x4ECF, offset: 0x33613, size: 0x8, addend: 0x0, symName: __ZL19stbi__gif_load_nextP13stbi__contextP9stbi__gifPiiPh, symObjAddr: 0xBF90, symBinAddr: 0x10001A850, symSize: 0x840 }
  - { offsetInCU: 0x5020, offset: 0x33764, size: 0x8, addend: 0x0, symName: __ZL16stbi__gif_headerP13stbi__contextP9stbi__gifPii, symObjAddr: 0xC7D0, symBinAddr: 0x10001B090, symSize: 0x220 }
  - { offsetInCU: 0x508B, offset: 0x337CF, size: 0x8, addend: 0x0, symName: __ZL26stbi__gif_parse_colortableP13stbi__contextPA4_hii, symObjAddr: 0xC9F0, symBinAddr: 0x10001B2B0, symSize: 0xB0 }
  - { offsetInCU: 0x50F2, offset: 0x33836, size: 0x8, addend: 0x0, symName: __ZL24stbi__process_gif_rasterP13stbi__contextP9stbi__gif, symObjAddr: 0xCAA0, symBinAddr: 0x10001B360, symSize: 0x3C0 }
  - { offsetInCU: 0x5204, offset: 0x33948, size: 0x8, addend: 0x0, symName: __ZL18stbi__out_gif_codeP9stbi__gift, symObjAddr: 0xCE60, symBinAddr: 0x10001B720, symSize: 0x230 }
  - { offsetInCU: 0x526B, offset: 0x339AF, size: 0x8, addend: 0x0, symName: __ZL20stbi__psd_decode_rleP13stbi__contextPhi, symObjAddr: 0xD090, symBinAddr: 0x10001B950, symSize: 0x160 }
  - { offsetInCU: 0x5302, offset: 0x33A46, size: 0x8, addend: 0x0, symName: __ZL19stbi__pic_test_coreP13stbi__context, symObjAddr: 0xD1F0, symBinAddr: 0x10001BAB0, symSize: 0x90 }
  - { offsetInCU: 0x5340, offset: 0x33A84, size: 0x8, addend: 0x0, symName: __ZL13stbi__pic_is4P13stbi__contextPKc, symObjAddr: 0xD280, symBinAddr: 0x10001BB40, symSize: 0x70 }
  - { offsetInCU: 0x538D, offset: 0x33AD1, size: 0x8, addend: 0x0, symName: __ZL12stbi__at_eofP13stbi__context, symObjAddr: 0xD2F0, symBinAddr: 0x10001BBB0, symSize: 0x90 }
  - { offsetInCU: 0x53BC, offset: 0x33B00, size: 0x8, addend: 0x0, symName: __ZL19stbi__pic_load_coreP13stbi__contextiiPiPh, symObjAddr: 0xD380, symBinAddr: 0x10001BC40, symSize: 0x660 }
  - { offsetInCU: 0x55C0, offset: 0x33D04, size: 0x8, addend: 0x0, symName: __ZL13stbi__readvalP13stbi__contextiPh, symObjAddr: 0xD9E0, symBinAddr: 0x10001C2A0, symSize: 0xB0 }
  - { offsetInCU: 0x562B, offset: 0x33D6F, size: 0x8, addend: 0x0, symName: __ZL13stbi__copyvaliPhPKh, symObjAddr: 0xDA90, symBinAddr: 0x10001C350, symSize: 0x70 }
  - { offsetInCU: 0x5692, offset: 0x33DD6, size: 0x8, addend: 0x0, symName: __ZL16stbi__setup_jpegP10stbi__jpeg, symObjAddr: 0xDB00, symBinAddr: 0x10001C3C0, symSize: 0x90 }
  - { offsetInCU: 0x56BD, offset: 0x33E01, size: 0x8, addend: 0x0, symName: __ZL24stbi__decode_jpeg_headerP10stbi__jpegi, symObjAddr: 0xDB90, symBinAddr: 0x10001C450, symSize: 0x1A0 }
  - { offsetInCU: 0x570A, offset: 0x33E4E, size: 0x8, addend: 0x0, symName: __ZL16stbi__idct_blockPhiPs, symObjAddr: 0xDD30, symBinAddr: 0x10001C5F0, symSize: 0x9C0 }
  - { offsetInCU: 0x5980, offset: 0x340C4, size: 0x8, addend: 0x0, symName: __ZL22stbi__YCbCr_to_RGB_rowPhPKhS1_S1_ii, symObjAddr: 0xE6F0, symBinAddr: 0x10001CFB0, symSize: 0x1A0 }
  - { offsetInCU: 0x5A6E, offset: 0x341B2, size: 0x8, addend: 0x0, symName: __ZL23stbi__resample_row_hv_2PhS_S_ii, symObjAddr: 0xE890, symBinAddr: 0x10001D150, symSize: 0x140 }
  - { offsetInCU: 0x5B06, offset: 0x3424A, size: 0x8, addend: 0x0, symName: __ZL20stbi__sse2_availablev, symObjAddr: 0xE9D0, symBinAddr: 0x10001D290, symSize: 0x10 }
  - { offsetInCU: 0x5B25, offset: 0x34269, size: 0x8, addend: 0x0, symName: __ZL15stbi__idct_simdPhiPs, symObjAddr: 0xE9E0, symBinAddr: 0x10001D2A0, symSize: 0x3D60 }
  - { offsetInCU: 0x6725, offset: 0x34E69, size: 0x8, addend: 0x0, symName: __ZL23stbi__YCbCr_to_RGB_simdPhPKhS1_S1_ii, symObjAddr: 0x12740, symBinAddr: 0x100021000, symSize: 0xE20 }
  - { offsetInCU: 0x6A4B, offset: 0x3518F, size: 0x8, addend: 0x0, symName: __ZL28stbi__resample_row_hv_2_simdPhS_S_ii, symObjAddr: 0x13560, symBinAddr: 0x100021E20, symSize: 0x7B0 }
  - { offsetInCU: 0x6C79, offset: 0x353BD, size: 0x8, addend: 0x0, symName: __ZL11stbi__clampi, symObjAddr: 0x13D10, symBinAddr: 0x1000225D0, symSize: 0x50 }
  - { offsetInCU: 0x6CA8, offset: 0x353EC, size: 0x8, addend: 0x0, symName: __ZL16stbi__get_markerP10stbi__jpeg, symObjAddr: 0x13D60, symBinAddr: 0x100022620, symSize: 0xB0 }
  - { offsetInCU: 0x6CE6, offset: 0x3542A, size: 0x8, addend: 0x0, symName: __ZL19stbi__build_huffmanP13stbi__huffmanPi, symObjAddr: 0x14F30, symBinAddr: 0x1000237F0, symSize: 0x280 }
  - { offsetInCU: 0x6DA9, offset: 0x354ED, size: 0x8, addend: 0x0, symName: __ZL19stbi__build_fast_acPsP13stbi__huffman, symObjAddr: 0x151B0, symBinAddr: 0x100023A70, symSize: 0x140 }
  - { offsetInCU: 0x6E85, offset: 0x355C9, size: 0x8, addend: 0x0, symName: __ZL26stbi__free_jpeg_componentsP10stbi__jpegii, symObjAddr: 0x152F0, symBinAddr: 0x100023BB0, symSize: 0x190 }
  - { offsetInCU: 0x6EE1, offset: 0x35625, size: 0x8, addend: 0x0, symName: __ZL15load_jpeg_imageP10stbi__jpegPiS1_S1_i, symObjAddr: 0x15480, symBinAddr: 0x100023D40, symSize: 0x1120 }
  - { offsetInCU: 0x711E, offset: 0x35862, size: 0x8, addend: 0x0, symName: __ZL23stbi__decode_jpeg_imageP10stbi__jpeg, symObjAddr: 0x165A0, symBinAddr: 0x100024E60, symSize: 0x270 }
  - { offsetInCU: 0x71A5, offset: 0x358E9, size: 0x8, addend: 0x0, symName: __ZL18stbi__cleanup_jpegP10stbi__jpeg, symObjAddr: 0x16810, symBinAddr: 0x1000250D0, symSize: 0x30 }
  - { offsetInCU: 0x71D0, offset: 0x35914, size: 0x8, addend: 0x0, symName: __ZL14resample_row_1PhS_S_ii, symObjAddr: 0x16840, symBinAddr: 0x100025100, symSize: 0x20 }
  - { offsetInCU: 0x723B, offset: 0x3597F, size: 0x8, addend: 0x0, symName: __ZL22stbi__resample_row_v_2PhS_S_ii, symObjAddr: 0x16860, symBinAddr: 0x100025120, symSize: 0x70 }
  - { offsetInCU: 0x72B5, offset: 0x359F9, size: 0x8, addend: 0x0, symName: __ZL22stbi__resample_row_h_2PhS_S_ii, symObjAddr: 0x168D0, symBinAddr: 0x100025190, symSize: 0x190 }
  - { offsetInCU: 0x735B, offset: 0x35A9F, size: 0x8, addend: 0x0, symName: __ZL26stbi__resample_row_genericPhS_S_ii, symObjAddr: 0x16A60, symBinAddr: 0x100025320, symSize: 0x90 }
  - { offsetInCU: 0x73E4, offset: 0x35B28, size: 0x8, addend: 0x0, symName: __ZL15stbi__blinn_8x8hh, symObjAddr: 0x16AF0, symBinAddr: 0x1000253B0, symSize: 0x40 }
  - { offsetInCU: 0x7431, offset: 0x35B75, size: 0x8, addend: 0x0, symName: __ZL25stbi__process_scan_headerP10stbi__jpeg, symObjAddr: 0x16B30, symBinAddr: 0x1000253F0, symSize: 0x390 }
  - { offsetInCU: 0x74D6, offset: 0x35C1A, size: 0x8, addend: 0x0, symName: __ZL30stbi__parse_entropy_coded_dataP10stbi__jpeg, symObjAddr: 0x16EC0, symBinAddr: 0x100025780, symSize: 0xDA0 }
  - { offsetInCU: 0x77B4, offset: 0x35EF8, size: 0x8, addend: 0x0, symName: __ZL17stbi__jpeg_finishP10stbi__jpeg, symObjAddr: 0x17C60, symBinAddr: 0x100026520, symSize: 0x1E0 }
  - { offsetInCU: 0x7863, offset: 0x35FA7, size: 0x8, addend: 0x0, symName: __ZL16stbi__jpeg_resetP10stbi__jpeg, symObjAddr: 0x17E40, symBinAddr: 0x100026700, symSize: 0xD0 }
  - { offsetInCU: 0x788E, offset: 0x35FD2, size: 0x8, addend: 0x0, symName: __ZL23stbi__jpeg_decode_blockP10stbi__jpegPsP13stbi__huffmanS3_S1_iPt, symObjAddr: 0x17F10, symBinAddr: 0x1000267D0, symSize: 0x2C0 }
  - { offsetInCU: 0x79B8, offset: 0x360FC, size: 0x8, addend: 0x0, symName: __ZL24stbi__grow_buffer_unsafeP10stbi__jpeg, symObjAddr: 0x181D0, symBinAddr: 0x100026A90, symSize: 0x110 }
  - { offsetInCU: 0x7A15, offset: 0x36159, size: 0x8, addend: 0x0, symName: __ZL31stbi__jpeg_decode_block_prog_dcP10stbi__jpegPsP13stbi__huffmani, symObjAddr: 0x182E0, symBinAddr: 0x100026BA0, symSize: 0x190 }
  - { offsetInCU: 0x7A9E, offset: 0x361E2, size: 0x8, addend: 0x0, symName: __ZL31stbi__jpeg_decode_block_prog_acP10stbi__jpegPsP13stbi__huffmanS1_, symObjAddr: 0x18470, symBinAddr: 0x100026D30, symSize: 0x5C0 }
  - { offsetInCU: 0x7C16, offset: 0x3635A, size: 0x8, addend: 0x0, symName: __ZL22stbi__jpeg_huff_decodeP10stbi__jpegP13stbi__huffman, symObjAddr: 0x18A30, symBinAddr: 0x1000272F0, symSize: 0x270 }
  - { offsetInCU: 0x7C9E, offset: 0x363E2, size: 0x8, addend: 0x0, symName: __ZL20stbi__extend_receiveP10stbi__jpegi, symObjAddr: 0x18CA0, symBinAddr: 0x100027560, symSize: 0xD0 }
  - { offsetInCU: 0x7CFA, offset: 0x3643E, size: 0x8, addend: 0x0, symName: __ZL18stbi__jpeg_get_bitP10stbi__jpeg, symObjAddr: 0x18D70, symBinAddr: 0x100027630, symSize: 0x70 }
  - { offsetInCU: 0x7D38, offset: 0x3647C, size: 0x8, addend: 0x0, symName: __ZL19stbi__jpeg_get_bitsP10stbi__jpegi, symObjAddr: 0x18DE0, symBinAddr: 0x1000276A0, symSize: 0xB0 }
  - { offsetInCU: 0x7D85, offset: 0x364C9, size: 0x8, addend: 0x0, symName: __ZL21stbi__jpeg_dequantizePsPt, symObjAddr: 0x18E90, symBinAddr: 0x100027750, symSize: 0x50 }
  - { offsetInCU: 0x7DCE, offset: 0x36512, size: 0x8, addend: 0x0, symName: __ZL14stbi__pnm_infoP13stbi__contextPiS1_S1_, symObjAddr: 0x18EE0, symBinAddr: 0x1000277A0, symSize: 0x180 }
  - { offsetInCU: 0x7E75, offset: 0x365B9, size: 0x8, addend: 0x0, symName: __ZL21stbi__mad4sizes_validiiiii, symObjAddr: 0x19060, symBinAddr: 0x100027920, symSize: 0xB0 }
  - { offsetInCU: 0x7EE0, offset: 0x36624, size: 0x8, addend: 0x0, symName: __ZL17stbi__malloc_mad4iiiii, symObjAddr: 0x19110, symBinAddr: 0x1000279D0, symSize: 0x70 }
  - { offsetInCU: 0x7F4B, offset: 0x3668F, size: 0x8, addend: 0x0, symName: __ZL25stbi__pnm_skip_whitespaceP13stbi__contextPc, symObjAddr: 0x19180, symBinAddr: 0x100027A40, symSize: 0x110 }
  - { offsetInCU: 0x7F85, offset: 0x366C9, size: 0x8, addend: 0x0, symName: __ZL20stbi__pnm_getintegerP13stbi__contextPc, symObjAddr: 0x19290, symBinAddr: 0x100027B50, symSize: 0x90 }
  - { offsetInCU: 0x7FD2, offset: 0x36716, size: 0x8, addend: 0x0, symName: __ZL17stbi__pnm_isspacec, symObjAddr: 0x19320, symBinAddr: 0x100027BE0, symSize: 0x80 }
  - { offsetInCU: 0x8001, offset: 0x36745, size: 0x8, addend: 0x0, symName: __ZL17stbi__pnm_isdigitc, symObjAddr: 0x193A0, symBinAddr: 0x100027C60, symSize: 0x40 }
  - { offsetInCU: 0x8030, offset: 0x36774, size: 0x8, addend: 0x0, symName: __ZL18stbi__hdr_gettokenP13stbi__contextPc, symObjAddr: 0x193E0, symBinAddr: 0x100027CA0, symSize: 0x100 }
  - { offsetInCU: 0x808C, offset: 0x367D0, size: 0x8, addend: 0x0, symName: __ZL17stbi__hdr_convertPfPhi, symObjAddr: 0x194E0, symBinAddr: 0x100027DA0, symSize: 0x1B0 }
  - { offsetInCU: 0x80F2, offset: 0x36836, size: 0x8, addend: 0x0, symName: __Z5ldexpB7v160006fi, symObjAddr: 0x19690, symBinAddr: 0x100027F50, symSize: 0x30 }
  - { offsetInCU: 0x812F, offset: 0x36873, size: 0x8, addend: 0x0, symName: __Z3powB7v160006ff, symObjAddr: 0x196C0, symBinAddr: 0x100027F80, symSize: 0x30 }
  - { offsetInCU: 0x816C, offset: 0x368B0, size: 0x8, addend: 0x0, symName: __ZL18stbi__tga_get_compiiPi, symObjAddr: 0x196F0, symBinAddr: 0x100027FB0, symSize: 0x120 }
  - { offsetInCU: 0x81B9, offset: 0x368FD, size: 0x8, addend: 0x0, symName: __ZL20stbi__tga_read_rgb16P13stbi__contextPh, symObjAddr: 0x19810, symBinAddr: 0x1000280D0, symSize: 0xA0 }
  - { offsetInCU: 0x823E, offset: 0x36982, size: 0x8, addend: 0x0, symName: __ZL21stbi__convert_8_to_16Phiii, symObjAddr: 0x198B0, symBinAddr: 0x100028170, symSize: 0xD0 }
  - { offsetInCU: 0x82C7, offset: 0x36A0B, size: 0x8, addend: 0x0, symName: __ZL23stbi__float_postprocessPfPiS0_S0_i, symObjAddr: 0x19980, symBinAddr: 0x100028240, symSize: 0xB0 }
  - { offsetInCU: 0x834B, offset: 0x36A8F, size: 0x8, addend: 0x0, symName: __ZL16stbi__ldr_to_hdrPhiii, symObjAddr: 0x19A30, symBinAddr: 0x1000282F0, symSize: 0x1D0 }
  - { offsetInCU: 0x83E3, offset: 0x36B27, size: 0x8, addend: 0x0, symName: __ZL16stbi__parse_zlibP10stbi__zbufi, symObjAddr: 0x19C00, symBinAddr: 0x1000284C0, symSize: 0x1A0 }
  - { offsetInCU: 0x843F, offset: 0x36B83, size: 0x8, addend: 0x0, symName: __ZL23stbi__parse_zlib_headerP10stbi__zbuf, symObjAddr: 0x19DA0, symBinAddr: 0x100028660, symSize: 0xE0 }
  - { offsetInCU: 0x849B, offset: 0x36BDF, size: 0x8, addend: 0x0, symName: __ZL14stbi__zreceiveP10stbi__zbufi, symObjAddr: 0x19E80, symBinAddr: 0x100028740, symSize: 0x70 }
  - { offsetInCU: 0x84E8, offset: 0x36C2C, size: 0x8, addend: 0x0, symName: __ZL30stbi__parse_uncompressed_blockP10stbi__zbuf, symObjAddr: 0x19EF0, symBinAddr: 0x1000287B0, symSize: 0x1F0 }
  - { offsetInCU: 0x8553, offset: 0x36C97, size: 0x8, addend: 0x0, symName: __ZL20stbi__zbuild_huffmanP14stbi__zhuffmanPKhi, symObjAddr: 0x1A0E0, symBinAddr: 0x1000289A0, symSize: 0x430 }
  - { offsetInCU: 0x865D, offset: 0x36DA1, size: 0x8, addend: 0x0, symName: __ZL25stbi__parse_huffman_blockP10stbi__zbuf, symObjAddr: 0x1A910, symBinAddr: 0x1000291D0, symSize: 0x2F0 }
  - { offsetInCU: 0x8710, offset: 0x36E54, size: 0x8, addend: 0x0, symName: __ZL11stbi__zget8P10stbi__zbuf, symObjAddr: 0x1AC00, symBinAddr: 0x1000294C0, symSize: 0x50 }
  - { offsetInCU: 0x873F, offset: 0x36E83, size: 0x8, addend: 0x0, symName: __ZL10stbi__zeofP10stbi__zbuf, symObjAddr: 0x1AC50, symBinAddr: 0x100029510, symSize: 0x30 }
  - { offsetInCU: 0x876E, offset: 0x36EB2, size: 0x8, addend: 0x0, symName: __ZL15stbi__fill_bitsP10stbi__zbuf, symObjAddr: 0x1AC80, symBinAddr: 0x100029540, symSize: 0x90 }
  - { offsetInCU: 0x8799, offset: 0x36EDD, size: 0x8, addend: 0x0, symName: __ZL13stbi__zexpandP10stbi__zbufPci, symObjAddr: 0x1AD10, symBinAddr: 0x1000295D0, symSize: 0x150 }
  - { offsetInCU: 0x8822, offset: 0x36F66, size: 0x8, addend: 0x0, symName: __ZL17stbi__bit_reverseii, symObjAddr: 0x1AE60, symBinAddr: 0x100029720, symSize: 0x60 }
  - { offsetInCU: 0x8860, offset: 0x36FA4, size: 0x8, addend: 0x0, symName: __ZL18stbi__bitreverse16i, symObjAddr: 0x1AEC0, symBinAddr: 0x100029780, symSize: 0x80 }
  - { offsetInCU: 0x888F, offset: 0x36FD3, size: 0x8, addend: 0x0, symName: __ZL21stbi__zhuffman_decodeP10stbi__zbufP14stbi__zhuffman, symObjAddr: 0x1AF40, symBinAddr: 0x100029800, symSize: 0xC0 }
  - { offsetInCU: 0x88EB, offset: 0x3702F, size: 0x8, addend: 0x0, symName: __ZL30stbi__zhuffman_decode_slowpathP10stbi__zbufP14stbi__zhuffman, symObjAddr: 0x1B000, symBinAddr: 0x1000298C0, symSize: 0x120 }
  - { offsetInCU: 0x8956, offset: 0x3709A, size: 0x8, addend: 0x0, symName: __ZL28stbi__load_gif_main_outofmemP9stbi__gifPhPPi, symObjAddr: 0x1B120, symBinAddr: 0x1000299E0, symSize: 0xA0 }
  - { offsetInCU: 0x89A3, offset: 0x370E7, size: 0x8, addend: 0x0, symName: __ZL19stbi__hdr_test_coreP13stbi__contextPKc, symObjAddr: 0x1B1C0, symBinAddr: 0x100029A80, symSize: 0x90 }
  - { offsetInCU: 0x89F0, offset: 0x37134, size: 0x8, addend: 0x0, symName: __ZL15stbi__jpeg_infoP13stbi__contextPiS1_S1_, symObjAddr: 0x1B250, symBinAddr: 0x100029B10, symSize: 0x80 }
  - { offsetInCU: 0x8A6A, offset: 0x371AE, size: 0x8, addend: 0x0, symName: __ZL14stbi__png_infoP13stbi__contextPiS1_S1_, symObjAddr: 0x1B2D0, symBinAddr: 0x100029B90, symSize: 0x40 }
  - { offsetInCU: 0x8AD6, offset: 0x3721A, size: 0x8, addend: 0x0, symName: __ZL14stbi__gif_infoP13stbi__contextPiS1_S1_, symObjAddr: 0x1B310, symBinAddr: 0x100029BD0, symSize: 0x40 }
  - { offsetInCU: 0x8B32, offset: 0x37276, size: 0x8, addend: 0x0, symName: __ZL14stbi__bmp_infoP13stbi__contextPiS1_S1_, symObjAddr: 0x1B350, symBinAddr: 0x100029C10, symSize: 0xE0 }
  - { offsetInCU: 0x8BAD, offset: 0x372F1, size: 0x8, addend: 0x0, symName: __ZL14stbi__psd_infoP13stbi__contextPiS1_S1_, symObjAddr: 0x1B430, symBinAddr: 0x100029CF0, symSize: 0x180 }
  - { offsetInCU: 0x8C36, offset: 0x3737A, size: 0x8, addend: 0x0, symName: __ZL14stbi__pic_infoP13stbi__contextPiS1_S1_, symObjAddr: 0x1B5B0, symBinAddr: 0x100029E70, symSize: 0x280 }
  - { offsetInCU: 0x8CFA, offset: 0x3743E, size: 0x8, addend: 0x0, symName: __ZL14stbi__hdr_infoP13stbi__contextPiS1_S1_, symObjAddr: 0x1B830, symBinAddr: 0x10002A0F0, symSize: 0x2C0 }
  - { offsetInCU: 0x8D9A, offset: 0x374DE, size: 0x8, addend: 0x0, symName: __ZL14stbi__tga_infoP13stbi__contextPiS1_S1_, symObjAddr: 0x1BAF0, symBinAddr: 0x10002A3B0, symSize: 0x2C0 }
  - { offsetInCU: 0x8E70, offset: 0x375B4, size: 0x8, addend: 0x0, symName: __ZL19stbi__jpeg_info_rawP10stbi__jpegPiS1_S1_, symObjAddr: 0x1BDB0, symBinAddr: 0x10002A670, symSize: 0xC0 }
  - { offsetInCU: 0x8ECC, offset: 0x37610, size: 0x8, addend: 0x0, symName: __ZL18stbi__png_info_rawP9stbi__pngPiS1_S1_, symObjAddr: 0x1BE70, symBinAddr: 0x10002A730, symSize: 0xB0 }
  - { offsetInCU: 0x8F28, offset: 0x3766C, size: 0x8, addend: 0x0, symName: __ZL18stbi__gif_info_rawP13stbi__contextPiS1_S1_, symObjAddr: 0x1BF20, symBinAddr: 0x10002A7E0, symSize: 0xD0 }
  - { offsetInCU: 0x8F93, offset: 0x376D7, size: 0x8, addend: 0x0, symName: __ZL14stbi__png_is16P13stbi__context, symObjAddr: 0x1BFF0, symBinAddr: 0x10002A8B0, symSize: 0x70 }
  - { offsetInCU: 0x8FD1, offset: 0x37715, size: 0x8, addend: 0x0, symName: __ZL14stbi__psd_is16P13stbi__context, symObjAddr: 0x1C060, symBinAddr: 0x10002A920, symSize: 0xE0 }
  - { offsetInCU: 0x901E, offset: 0x37762, size: 0x8, addend: 0x0, symName: __ZL14stbi__pnm_is16P13stbi__context, symObjAddr: 0x1C140, symBinAddr: 0x10002AA00, symSize: 0x44 }
  - { offsetInCU: 0x3F, offset: 0x37C1E, size: 0x8, addend: 0x0, symName: _mainWindow, symObjAddr: 0x44C40, symBinAddr: 0x1000381D0, symSize: 0x0 }
  - { offsetInCU: 0x19A, offset: 0x37D79, size: 0x8, addend: 0x0, symName: _meshList, symObjAddr: 0x44C60, symBinAddr: 0x1000381F0, symSize: 0x0 }
  - { offsetInCU: 0x40A3, offset: 0x3BC82, size: 0x8, addend: 0x0, symName: __ZNSt3__119__debug_db_insert_cB7v160006INS_6vectorIP4MeshNS_9allocatorIS3_EEEEEEvPT_, symObjAddr: 0x34D0, symBinAddr: 0x10002DE60, symSize: 0x10 }
  - { offsetInCU: 0x40D4, offset: 0x3BCB3, size: 0x8, addend: 0x0, symName: __ZNSt3__118__debug_db_erase_cB7v160006INS_6vectorIP4MeshNS_9allocatorIS3_EEEEEEvPT_, symObjAddr: 0x3760, symBinAddr: 0x10002E0F0, symSize: 0x10 }
  - { offsetInCU: 0x4105, offset: 0x3BCE4, size: 0x8, addend: 0x0, symName: __ZNSt3__112__to_addressB7v160006IP4MeshEEPT_S4_, symObjAddr: 0x3870, symBinAddr: 0x10002E200, symSize: 0x10 }
  - { offsetInCU: 0x413A, offset: 0x3BD19, size: 0x8, addend: 0x0, symName: __ZNSt3__119__debug_db_insert_cB7v160006INS_6vectorI6ShaderNS_9allocatorIS2_EEEEEEvPT_, symObjAddr: 0x3BB0, symBinAddr: 0x10002E420, symSize: 0x10 }
  - { offsetInCU: 0x416B, offset: 0x3BD4A, size: 0x8, addend: 0x0, symName: __ZNSt3__118__debug_db_erase_cB7v160006INS_6vectorI6ShaderNS_9allocatorIS2_EEEEEEvPT_, symObjAddr: 0x3E40, symBinAddr: 0x10002E6B0, symSize: 0x10 }
  - { offsetInCU: 0x419C, offset: 0x3BD7B, size: 0x8, addend: 0x0, symName: __ZNSt3__112__to_addressB7v160006I6ShaderEEPT_S3_, symObjAddr: 0x3F50, symBinAddr: 0x10002E7C0, symSize: 0x10 }
  - { offsetInCU: 0x41D1, offset: 0x3BDB0, size: 0x8, addend: 0x0, symName: __ZNSt3__119__allocate_at_leastB7v160006INS_9allocatorIP4MeshEEEENS_19__allocation_resultINS_16allocator_traitsIT_E7pointerEEERS7_m, symObjAddr: 0x4A10, symBinAddr: 0x10002F050, symSize: 0x40 }
  - { offsetInCU: 0x4214, offset: 0x3BDF3, size: 0x8, addend: 0x0, symName: __ZNSt3__142__uninitialized_allocator_move_if_noexceptB7v160006INS_9allocatorIP4MeshEENS_16reverse_iteratorIPS3_EES7_S3_vEET1_RT_T0_SB_S8_, symObjAddr: 0x4C90, symBinAddr: 0x10002F1E0, symSize: 0x70 }
  - { offsetInCU: 0x4290, offset: 0x3BE6F, size: 0x8, addend: 0x0, symName: __ZNSt3__14swapB7v160006IPP4MeshEENS_9enable_ifIXaasr21is_move_constructibleIT_EE5valuesr18is_move_assignableIS5_EE5valueEvE4typeERS5_S8_, symObjAddr: 0x4D50, symBinAddr: 0x10002F2A0, symSize: 0x40 }
  - { offsetInCU: 0x42E1, offset: 0x3BEC0, size: 0x8, addend: 0x0, symName: __ZNSt3__125__debug_db_invalidate_allB7v160006INS_6vectorIP4MeshNS_9allocatorIS3_EEEEEEvPT_, symObjAddr: 0x4E40, symBinAddr: 0x10002F390, symSize: 0x10 }
  - { offsetInCU: 0x4312, offset: 0x3BEF1, size: 0x8, addend: 0x0, symName: __ZNSt3__14moveB7v160006INS_16reverse_iteratorIPP4MeshEES5_EET0_T_S7_S6_, symObjAddr: 0x4E50, symBinAddr: 0x10002F3A0, symSize: 0x80 }
  - { offsetInCU: 0x436C, offset: 0x3BF4B, size: 0x8, addend: 0x0, symName: __ZNSt3__16__moveB7v160006INS_17_ClassicAlgPolicyENS_16reverse_iteratorIPP4MeshEES6_S6_EENS_4pairIT0_T2_EES8_T1_S9_, symObjAddr: 0x4ED0, symBinAddr: 0x10002F420, symSize: 0x90 }
  - { offsetInCU: 0x43D8, offset: 0x3BFB7, size: 0x8, addend: 0x0, symName: __ZNSt3__123__dispatch_copy_or_moveB7v160006INS_17_ClassicAlgPolicyENS_11__move_loopIS1_EENS_14__move_trivialENS_16reverse_iteratorIPP4MeshEES9_S9_EENS_4pairIT2_T4_EESB_T3_SC_, symObjAddr: 0x4F60, symBinAddr: 0x10002F4B0, symSize: 0x90 }
  - { offsetInCU: 0x4456, offset: 0x3C035, size: 0x8, addend: 0x0, symName: __ZNSt3__121__unwrap_and_dispatchB7v160006INS_10__overloadINS_11__move_loopINS_17_ClassicAlgPolicyEEENS_14__move_trivialEEENS_16reverse_iteratorIPP4MeshEESB_SB_Li0EEENS_4pairIT0_T2_EESD_T1_SE_, symObjAddr: 0x4FF0, symBinAddr: 0x10002F540, symSize: 0x210 }
  - { offsetInCU: 0x44E5, offset: 0x3C0C4, size: 0x8, addend: 0x0, symName: __ZNSt3__114__unwrap_rangeB7v160006INS_16reverse_iteratorIPP4MeshEES5_EENS_4pairIT0_S7_EET_S9_, symObjAddr: 0x5200, symBinAddr: 0x10002F750, symSize: 0x90 }
  - { offsetInCU: 0x4657, offset: 0x3C236, size: 0x8, addend: 0x0, symName: __ZNSt3__113__unwrap_iterB7v160006INS_16reverse_iteratorIPP4MeshEENS_18__unwrap_iter_implIS5_Lb0EEELi0EEEDTclsrT0_8__unwrapclsr3stdE7declvalIT_EEEES9_, symObjAddr: 0x5330, symBinAddr: 0x10002F880, symSize: 0x40 }
  - { offsetInCU: 0x469B, offset: 0x3C27A, size: 0x8, addend: 0x0, symName: __ZNSt3__19make_pairB7v160006INS_16reverse_iteratorIPP4MeshEES5_EENS_4pairINS_18__unwrap_ref_decayIT_E4typeENS7_IT0_E4typeEEEOS8_OSB_, symObjAddr: 0x5370, symBinAddr: 0x10002F8C0, symSize: 0x30 }
  - { offsetInCU: 0x46EA, offset: 0x3C2C9, size: 0x8, addend: 0x0, symName: __ZNSt3__114__rewrap_rangeB7v160006INS_16reverse_iteratorIPP4MeshEES5_EET_S6_T0_, symObjAddr: 0x53A0, symBinAddr: 0x10002F8F0, symSize: 0x60 }
  - { offsetInCU: 0x4736, offset: 0x3C315, size: 0x8, addend: 0x0, symName: __ZNSt3__113__rewrap_iterB7v160006INS_16reverse_iteratorIPP4MeshEES5_NS_18__unwrap_iter_implIS5_Lb0EEEEET_S8_T0_, symObjAddr: 0x5400, symBinAddr: 0x10002F950, symSize: 0x70 }
  - { offsetInCU: 0x478B, offset: 0x3C36A, size: 0x8, addend: 0x0, symName: __ZNSt3__1neB7v160006IPP4MeshS3_EEbRKNS_16reverse_iteratorIT_EERKNS4_IT0_EE, symObjAddr: 0x5470, symBinAddr: 0x10002F9C0, symSize: 0x40 }
  - { offsetInCU: 0x4889, offset: 0x3C468, size: 0x8, addend: 0x0, symName: __ZNSt3__119__allocate_at_leastB7v160006INS_9allocatorI6ShaderEEEENS_19__allocation_resultINS_16allocator_traitsIT_E7pointerEEERS6_m, symObjAddr: 0x6970, symBinAddr: 0x100030410, symSize: 0x40 }
  - { offsetInCU: 0x48CC, offset: 0x3C4AB, size: 0x8, addend: 0x0, symName: __ZNSt3__142__uninitialized_allocator_move_if_noexceptB7v160006INS_9allocatorI6ShaderEENS_16reverse_iteratorIPS2_EES6_S6_EET2_RT_T0_T1_S7_, symObjAddr: 0x6B00, symBinAddr: 0x1000305A0, symSize: 0x180 }
  - { offsetInCU: 0x496B, offset: 0x3C54A, size: 0x8, addend: 0x0, symName: __ZNSt3__14swapB7v160006IP6ShaderEENS_9enable_ifIXaasr21is_move_constructibleIT_EE5valuesr18is_move_assignableIS4_EE5valueEvE4typeERS4_S7_, symObjAddr: 0x6CD0, symBinAddr: 0x100030770, symSize: 0x40 }
  - { offsetInCU: 0x49BC, offset: 0x3C59B, size: 0x8, addend: 0x0, symName: __ZNSt3__125__debug_db_invalidate_allB7v160006INS_6vectorI6ShaderNS_9allocatorIS2_EEEEEEvPT_, symObjAddr: 0x6DC0, symBinAddr: 0x100030860, symSize: 0x10 }
  - { offsetInCU: 0x49ED, offset: 0x3C5CC, size: 0x8, addend: 0x0, symName: __ZNSt3__122__make_exception_guardB7v160006INS_29_AllocatorDestroyRangeReverseINS_9allocatorI6ShaderEENS_16reverse_iteratorIPS3_EEEEEENS_28__exception_guard_exceptionsIT_EESA_, symObjAddr: 0x6DD0, symBinAddr: 0x100030870, symSize: 0x60 }
  - { offsetInCU: 0x4A22, offset: 0x3C601, size: 0x8, addend: 0x0, symName: __ZNSt3__1neB7v160006IP6ShaderS2_EEbRKNS_16reverse_iteratorIT_EERKNS3_IT0_EE, symObjAddr: 0x6E70, symBinAddr: 0x100030910, symSize: 0x40 }
  - { offsetInCU: 0x4A6E, offset: 0x3C64D, size: 0x8, addend: 0x0, symName: __ZNSt3__112__to_addressB7v160006INS_16reverse_iteratorIP6ShaderEEvEENS_5decayIDTclsr19__to_address_helperIT_EE6__callclsr3stdE7declvalIRKS6_EEEEE4typeES8_, symObjAddr: 0x6EE0, symBinAddr: 0x100030980, symSize: 0x20 }
  - { offsetInCU: 0x4ACE, offset: 0x3C6AD, size: 0x8, addend: 0x0, symName: __ZNSt3__119__allocator_destroyB7v160006INS_9allocatorI6ShaderEENS_16reverse_iteratorINS4_IPS2_EEEES7_EEvRT_T0_T1_, symObjAddr: 0x71F0, symBinAddr: 0x100030C90, symSize: 0x70 }
  - { offsetInCU: 0x4B31, offset: 0x3C710, size: 0x8, addend: 0x0, symName: __ZNSt3__1neB7v160006INS_16reverse_iteratorIP6ShaderEES4_EEbRKNS1_IT_EERKNS1_IT0_EE, symObjAddr: 0x7290, symBinAddr: 0x100030D30, symSize: 0x50 }
  - { offsetInCU: 0x4B7D, offset: 0x3C75C, size: 0x8, addend: 0x0, symName: __ZNSt3__112__to_addressB7v160006INS_16reverse_iteratorINS1_IP6ShaderEEEEvEENS_5decayIDTclsr19__to_address_helperIT_EE6__callclsr3stdE7declvalIRKS7_EEEEE4typeES9_, symObjAddr: 0x72E0, symBinAddr: 0x100030D80, symSize: 0x20 }
  - { offsetInCU: 0x51F5, offset: 0x3CDD4, size: 0x8, addend: 0x0, symName: _shaderList, symObjAddr: 0x44C78, symBinAddr: 0x100038208, symSize: 0x0 }
  - { offsetInCU: 0x5392, offset: 0x3CF71, size: 0x8, addend: 0x0, symName: _yaw, symObjAddr: 0x84C8, symBinAddr: 0x1000380A8, symSize: 0x0 }
  - { offsetInCU: 0x53A8, offset: 0x3CF87, size: 0x8, addend: 0x0, symName: _pitch, symObjAddr: 0x44C90, symBinAddr: 0x100038220, symSize: 0x0 }
  - { offsetInCU: 0x53BE, offset: 0x3CF9D, size: 0x8, addend: 0x0, symName: _lightColour, symObjAddr: 0x84CC, symBinAddr: 0x1000380AC, symSize: 0x0 }
  - { offsetInCU: 0x5838, offset: 0x3D417, size: 0x8, addend: 0x0, symName: __ZN3glm5clampIfEET_S1_S1_S1_, symObjAddr: 0x5F0, symBinAddr: 0x10002AF90, symSize: 0x40 }
  - { offsetInCU: 0x588D, offset: 0x3D46C, size: 0x8, addend: 0x0, symName: __ZN3glm9normalizeILi3EfLNS_9qualifierE0EEENS_3vecIXT_ET0_XT1_EEERKS4_, symObjAddr: 0x1880, symBinAddr: 0x10002C220, symSize: 0x50 }
  - { offsetInCU: 0x58D6, offset: 0x3D4B5, size: 0x8, addend: 0x0, symName: __ZN3glmmiIfLNS_9qualifierE0EEENS_3vecILi3ET_XT0_EEERKS4_S6_, symObjAddr: 0x18D0, symBinAddr: 0x10002C270, symSize: 0x70 }
  - { offsetInCU: 0x5926, offset: 0x3D505, size: 0x8, addend: 0x0, symName: __ZN3glm5crossIfLNS_9qualifierE0EEENS_3vecILi3ET_XT0_EEERKS4_S6_, symObjAddr: 0x1940, symBinAddr: 0x10002C2E0, symSize: 0x60 }
  - { offsetInCU: 0x5973, offset: 0x3D552, size: 0x8, addend: 0x0, symName: __ZN3glm11perspectiveIfEENS_3matILi4ELi4ET_LNS_9qualifierE0EEES2_S2_S2_S2_, symObjAddr: 0x19A0, symBinAddr: 0x10002C340, symSize: 0x50 }
  - { offsetInCU: 0x59D7, offset: 0x3D5B6, size: 0x8, addend: 0x0, symName: __ZN3glm7radiansIfEET_S1_, symObjAddr: 0x1A80, symBinAddr: 0x10002C420, symSize: 0x20 }
  - { offsetInCU: 0x5A0C, offset: 0x3D5EB, size: 0x8, addend: 0x0, symName: __ZN3glmmlIfLNS_9qualifierE0EEENS_3vecILi3ET_XT0_EEERKS4_S3_, symObjAddr: 0x1AC0, symBinAddr: 0x10002C460, symSize: 0x60 }
  - { offsetInCU: 0x6BC3, offset: 0x3E7A2, size: 0x8, addend: 0x0, symName: __ZN3glmmlIfLNS_9qualifierE0EEENS_3matILi4ELi4ET_XT0_EEERKS4_S6_, symObjAddr: 0x1DE0, symBinAddr: 0x10002C780, symSize: 0x650 }
  - { offsetInCU: 0x6CA1, offset: 0x3E880, size: 0x8, addend: 0x0, symName: __ZN3glm9translateIfLNS_9qualifierE0EEENS_3matILi4ELi4ET_XT0_EEERKS4_RKNS_3vecILi3ES3_XT0_EEE, symObjAddr: 0x2480, symBinAddr: 0x10002CE20, symSize: 0x190 }
  - { offsetInCU: 0x6CFE, offset: 0x3E8DD, size: 0x8, addend: 0x0, symName: __ZN3glm5scaleIfLNS_9qualifierE0EEENS_3matILi4ELi4ET_XT0_EEERKS4_RKNS_3vecILi3ES3_XT0_EEE, symObjAddr: 0x2610, symBinAddr: 0x10002CFB0, symSize: 0x150 }
  - { offsetInCU: 0x6D5B, offset: 0x3E93A, size: 0x8, addend: 0x0, symName: __ZN3glm6rotateIfLNS_9qualifierE0EEENS_3matILi4ELi4ET_XT0_EEERKS4_S3_RKNS_3vecILi3ES3_XT0_EEE, symObjAddr: 0x2760, symBinAddr: 0x10002D100, symSize: 0xB30 }
  - { offsetInCU: 0x6E1C, offset: 0x3E9FB, size: 0x8, addend: 0x0, symName: __ZN3glm9value_ptrIfLNS_9qualifierE0EEEPT_RNS_3matILi4ELi4ES2_XT0_EEE, symObjAddr: 0x3290, symBinAddr: 0x10002DC30, symSize: 0x20 }
  - { offsetInCU: 0x6E5B, offset: 0x3EA3A, size: 0x8, addend: 0x0, symName: __ZN3glm3minIfEET_S1_S1_, symObjAddr: 0x32F0, symBinAddr: 0x10002DC90, symSize: 0x50 }
  - { offsetInCU: 0x6E9E, offset: 0x3EA7D, size: 0x8, addend: 0x0, symName: __ZN3glm3maxIfEET_S1_S1_, symObjAddr: 0x3340, symBinAddr: 0x10002DCE0, symSize: 0x50 }
  - { offsetInCU: 0x705E, offset: 0x3EC3D, size: 0x8, addend: 0x0, symName: __ZN3glm11inversesqrtIfEET_S1_, symObjAddr: 0x7690, symBinAddr: 0x100031130, symSize: 0x30 }
  - { offsetInCU: 0x7093, offset: 0x3EC72, size: 0x8, addend: 0x0, symName: __ZN3glm3dotILi3EfLNS_9qualifierE0EEET0_RKNS_3vecIXT_ES2_XT1_EEES6_, symObjAddr: 0x76C0, symBinAddr: 0x100031160, symSize: 0x30 }
  - { offsetInCU: 0x70EA, offset: 0x3ECC9, size: 0x8, addend: 0x0, symName: __ZN3glmmlIfLNS_9qualifierE0EEENS_3vecILi3ET_XT0_EEERKS4_S6_, symObjAddr: 0x7760, symBinAddr: 0x100031200, symSize: 0x70 }
  - { offsetInCU: 0x713A, offset: 0x3ED19, size: 0x8, addend: 0x0, symName: __ZN3glm16perspectiveRH_NOIfEENS_3matILi4ELi4ET_LNS_9qualifierE0EEES2_S2_S2_S2_, symObjAddr: 0x7860, symBinAddr: 0x100031300, symSize: 0x200 }
  - { offsetInCU: 0x71B7, offset: 0x3ED96, size: 0x8, addend: 0x0, symName: __ZN3glm3absIfEET_S1_, symObjAddr: 0x7A60, symBinAddr: 0x100031500, symSize: 0x20 }
  - { offsetInCU: 0x71EE, offset: 0x3EDCD, size: 0x8, addend: 0x0, symName: __ZN3glmplIfLNS_9qualifierE0EEENS_3vecILi4ET_XT0_EEERKS4_S6_, symObjAddr: 0x7BA0, symBinAddr: 0x100031640, symSize: 0x40 }
  - { offsetInCU: 0x723E, offset: 0x3EE1D, size: 0x8, addend: 0x0, symName: __ZN3glmmlIfLNS_9qualifierE0EEENS_3vecILi4ET_XT0_EEERKS4_RKS3_, symObjAddr: 0x7BE0, symBinAddr: 0x100031680, symSize: 0x50 }
  - { offsetInCU: 0x728E, offset: 0x3EE6D, size: 0x8, addend: 0x0, symName: __ZN3glmmlIfLNS_9qualifierE0EEENS_3vecILi3ET_XT0_EEES3_RKS4_, symObjAddr: 0x8030, symBinAddr: 0x100031AD0, symSize: 0x70 }
  - { offsetInCU: 0x731E, offset: 0x3EEFD, size: 0x8, addend: 0x0, symName: _lightPos, symObjAddr: 0x84D8, symBinAddr: 0x1000380B8, symSize: 0x0 }
  - { offsetInCU: 0x7328, offset: 0x3EF07, size: 0x8, addend: 0x0, symName: __Z10checkMousev, symObjAddr: 0x450, symBinAddr: 0x10002ADF0, symSize: 0x180 }
  - { offsetInCU: 0x734D, offset: 0x3EF2C, size: 0x8, addend: 0x0, symName: __ZZ10checkMousevE5lastX, symObjAddr: 0x44C98, symBinAddr: 0x1000381B0, symSize: 0x0 }
  - { offsetInCU: 0x7363, offset: 0x3EF42, size: 0x8, addend: 0x0, symName: __ZZ10checkMousevE5lastY, symObjAddr: 0x44CA8, symBinAddr: 0x1000381C0, symSize: 0x0 }
  - { offsetInCU: 0x73E1, offset: 0x3EFC0, size: 0x8, addend: 0x0, symName: __ZL7vShader, symObjAddr: 0x84E8, symBinAddr: 0x1000380C8, symSize: 0x0 }
  - { offsetInCU: 0x73FB, offset: 0x3EFDA, size: 0x8, addend: 0x0, symName: __ZL7fShader, symObjAddr: 0x84F0, symBinAddr: 0x1000380D0, symSize: 0x0 }
  - { offsetInCU: 0x741A, offset: 0x3EFF9, size: 0x8, addend: 0x0, symName: __ZNSt3__16vectorIP4MeshNS_9allocatorIS2_EEE26__swap_out_circular_bufferERNS_14__split_bufferIS2_RS4_EE, symObjAddr: 0x4480, symBinAddr: 0x10002ECF0, symSize: 0x130 }
  - { offsetInCU: 0x74A1, offset: 0x3F080, size: 0x8, addend: 0x0, symName: __ZNSt3__16vectorI6ShaderNS_9allocatorIS1_EEE26__swap_out_circular_bufferERNS_14__split_bufferIS1_RS3_EE, symObjAddr: 0x6610, symBinAddr: 0x1000300B0, symSize: 0x130 }
  - { offsetInCU: 0x93C6, offset: 0x40FA5, size: 0x8, addend: 0x0, symName: __ZNSt3__16vectorIP4MeshNS_9allocatorIS2_EEEC1B7v160006Ev, symObjAddr: 0x0, symBinAddr: 0x10002AA50, symSize: 0x20 }
  - { offsetInCU: 0x93F0, offset: 0x40FCF, size: 0x8, addend: 0x0, symName: __ZNSt3__16vectorIP4MeshNS_9allocatorIS2_EEED1B7v160006Ev, symObjAddr: 0x20, symBinAddr: 0x10002AA70, symSize: 0x20 }
  - { offsetInCU: 0x941A, offset: 0x40FF9, size: 0x8, addend: 0x0, symName: __ZNSt3__16vectorI6ShaderNS_9allocatorIS1_EEEC1B7v160006Ev, symObjAddr: 0x40, symBinAddr: 0x10002AA90, symSize: 0x20 }
  - { offsetInCU: 0x9444, offset: 0x41023, size: 0x8, addend: 0x0, symName: __ZNSt3__16vectorI6ShaderNS_9allocatorIS1_EEED1B7v160006Ev, symObjAddr: 0x60, symBinAddr: 0x10002AAB0, symSize: 0x20 }
  - { offsetInCU: 0x946D, offset: 0x4104C, size: 0x8, addend: 0x0, symName: __Z14CreateTrianglev, symObjAddr: 0x80, symBinAddr: 0x10002AAD0, symSize: 0x130 }
  - { offsetInCU: 0x94B5, offset: 0x41094, size: 0x8, addend: 0x0, symName: __ZNSt3__16vectorIP4MeshNS_9allocatorIS2_EEE9push_backB7v160006ERKS2_, symObjAddr: 0x1B0, symBinAddr: 0x10002AC00, symSize: 0x60 }
  - { offsetInCU: 0x94EB, offset: 0x410CA, size: 0x8, addend: 0x0, symName: __Z9CreateOBJv, symObjAddr: 0x210, symBinAddr: 0x10002AC60, symSize: 0xB0 }
  - { offsetInCU: 0x9521, offset: 0x41100, size: 0x8, addend: 0x0, symName: __Z13CreateShadersv, symObjAddr: 0x370, symBinAddr: 0x10002AD10, symSize: 0x80 }
  - { offsetInCU: 0x954A, offset: 0x41129, size: 0x8, addend: 0x0, symName: __ZNSt3__16vectorI6ShaderNS_9allocatorIS1_EEE9push_backB7v160006ERKS1_, symObjAddr: 0x3F0, symBinAddr: 0x10002AD90, symSize: 0x60 }
  - { offsetInCU: 0x9581, offset: 0x41160, size: 0x8, addend: 0x0, symName: __ZN6Window9getWindowEv, symObjAddr: 0x5D0, symBinAddr: 0x10002AF70, symSize: 0x20 }
  - { offsetInCU: 0x95A7, offset: 0x41186, size: 0x8, addend: 0x0, symName: _main, symObjAddr: 0x630, symBinAddr: 0x10002AFD0, symSize: 0x1250 }
  - { offsetInCU: 0x979E, offset: 0x4137D, size: 0x8, addend: 0x0, symName: __ZN6Window14getBufferWidthEv, symObjAddr: 0x19F0, symBinAddr: 0x10002C390, symSize: 0x20 }
  - { offsetInCU: 0x97C4, offset: 0x413A3, size: 0x8, addend: 0x0, symName: __ZN6Window15getBufferHeightEv, symObjAddr: 0x1A10, symBinAddr: 0x10002C3B0, symSize: 0x20 }
  - { offsetInCU: 0x97EA, offset: 0x413C9, size: 0x8, addend: 0x0, symName: __ZN6Window14getShouldCloseEv, symObjAddr: 0x1A30, symBinAddr: 0x10002C3D0, symSize: 0x30 }
  - { offsetInCU: 0x980F, offset: 0x413EE, size: 0x8, addend: 0x0, symName: __Z3cosB7v160006f, symObjAddr: 0x1A60, symBinAddr: 0x10002C400, symSize: 0x20 }
  - { offsetInCU: 0x983D, offset: 0x4141C, size: 0x8, addend: 0x0, symName: __Z3sinB7v160006f, symObjAddr: 0x1AA0, symBinAddr: 0x10002C440, symSize: 0x20 }
  - { offsetInCU: 0x986C, offset: 0x4144B, size: 0x8, addend: 0x0, symName: __ZN3glm3vecILi3EfLNS_9qualifierE0EEpLIfEERS2_RKNS0_ILi3ET_LS1_0EEE, symObjAddr: 0x1B20, symBinAddr: 0x10002C4C0, symSize: 0x50 }
  - { offsetInCU: 0x98AB, offset: 0x4148A, size: 0x8, addend: 0x0, symName: __ZN3glm3vecILi3EfLNS_9qualifierE0EEmIIfEERS2_RKNS0_ILi3ET_LS1_0EEE, symObjAddr: 0x1B70, symBinAddr: 0x10002C510, symSize: 0x60 }
  - { offsetInCU: 0x98EB, offset: 0x414CA, size: 0x8, addend: 0x0, symName: __ZN3glm3vecILi3EfLNS_9qualifierE0EEC1Efff, symObjAddr: 0x1BD0, symBinAddr: 0x10002C570, symSize: 0x40 }
  - { offsetInCU: 0x9B78, offset: 0x41757, size: 0x8, addend: 0x0, symName: __ZN3glm3matILi4ELi4EfLNS_9qualifierE0EEixEi, symObjAddr: 0x1C10, symBinAddr: 0x10002C5B0, symSize: 0x80 }
  - { offsetInCU: 0x9BAF, offset: 0x4178E, size: 0x8, addend: 0x0, symName: __ZN3glm3vecILi4EfLNS_9qualifierE0EEixEi, symObjAddr: 0x1C90, symBinAddr: 0x10002C630, symSize: 0x100 }
  - { offsetInCU: 0x9BE6, offset: 0x417C5, size: 0x8, addend: 0x0, symName: __ZN3glm3vecILi4EfLNS_9qualifierE0EEC1Effff, symObjAddr: 0x1D90, symBinAddr: 0x10002C730, symSize: 0x50 }
  - { offsetInCU: 0x9C4A, offset: 0x41829, size: 0x8, addend: 0x0, symName: __ZNSt3__16vectorI6ShaderNS_9allocatorIS1_EEEixB7v160006Em, symObjAddr: 0x2430, symBinAddr: 0x10002CDD0, symSize: 0x20 }
  - { offsetInCU: 0x9C81, offset: 0x41860, size: 0x8, addend: 0x0, symName: __ZN6Shader18GetUniformLocationEPKc, symObjAddr: 0x2450, symBinAddr: 0x10002CDF0, symSize: 0x30 }
  - { offsetInCU: 0x9CB5, offset: 0x41894, size: 0x8, addend: 0x0, symName: __ZNSt3__16vectorIP4MeshNS_9allocatorIS2_EEEixB7v160006Em, symObjAddr: 0x32B0, symBinAddr: 0x10002DC50, symSize: 0x20 }
  - { offsetInCU: 0x9CEC, offset: 0x418CB, size: 0x8, addend: 0x0, symName: __ZN6Window11swapBuffersEv, symObjAddr: 0x32D0, symBinAddr: 0x10002DC70, symSize: 0x20 }
  - { offsetInCU: 0x9D12, offset: 0x418F1, size: 0x8, addend: 0x0, symName: __ZN3glm3vecILi3EfLNS_9qualifierE0EEC2Efff, symObjAddr: 0x3390, symBinAddr: 0x10002DD30, symSize: 0x40 }
  - { offsetInCU: 0x9D68, offset: 0x41947, size: 0x8, addend: 0x0, symName: __ZN3glm3vecILi4EfLNS_9qualifierE0EE6lengthEv, symObjAddr: 0x33D0, symBinAddr: 0x10002DD70, symSize: 0x10 }
  - { offsetInCU: 0x9D7C, offset: 0x4195B, size: 0x8, addend: 0x0, symName: __ZN3glm3vecILi4EfLNS_9qualifierE0EEC2Effff, symObjAddr: 0x33E0, symBinAddr: 0x10002DD80, symSize: 0x50 }
  - { offsetInCU: 0x9DE0, offset: 0x419BF, size: 0x8, addend: 0x0, symName: __ZNSt3__16vectorIP4MeshNS_9allocatorIS2_EEEC2B7v160006Ev, symObjAddr: 0x3430, symBinAddr: 0x10002DDD0, symSize: 0x60 }
  - { offsetInCU: 0x9E14, offset: 0x419F3, size: 0x8, addend: 0x0, symName: __ZNSt3__117__compressed_pairIPP4MeshNS_9allocatorIS2_EEEC1B7v160006IDnNS_18__default_init_tagEEEOT_OT0_, symObjAddr: 0x3490, symBinAddr: 0x10002DE30, symSize: 0x30 }
  - { offsetInCU: 0x9E6C, offset: 0x41A4B, size: 0x8, addend: 0x0, symName: __ZNSt3__117__compressed_pairIPP4MeshNS_9allocatorIS2_EEEC2B7v160006IDnNS_18__default_init_tagEEEOT_OT0_, symObjAddr: 0x34E0, symBinAddr: 0x10002DE70, symSize: 0x40 }
  - { offsetInCU: 0x9EC4, offset: 0x41AA3, size: 0x8, addend: 0x0, symName: __ZNSt3__122__compressed_pair_elemIPP4MeshLi0ELb0EEC2B7v160006IDnvEEOT_, symObjAddr: 0x3520, symBinAddr: 0x10002DEB0, symSize: 0x20 }
  - { offsetInCU: 0x9F06, offset: 0x41AE5, size: 0x8, addend: 0x0, symName: __ZNSt3__122__compressed_pair_elemINS_9allocatorIP4MeshEELi1ELb1EEC2B7v160006ENS_18__default_init_tagE, symObjAddr: 0x3540, symBinAddr: 0x10002DED0, symSize: 0x20 }
  - { offsetInCU: 0x9F3B, offset: 0x41B1A, size: 0x8, addend: 0x0, symName: __ZNSt3__19allocatorIP4MeshEC2B7v160006Ev, symObjAddr: 0x3560, symBinAddr: 0x10002DEF0, symSize: 0x20 }
  - { offsetInCU: 0x9F65, offset: 0x41B44, size: 0x8, addend: 0x0, symName: __ZNSt3__116__non_trivial_ifILb1ENS_9allocatorIP4MeshEEEC2B7v160006Ev, symObjAddr: 0x3580, symBinAddr: 0x10002DF10, symSize: 0x10 }
  - { offsetInCU: 0x9F8F, offset: 0x41B6E, size: 0x8, addend: 0x0, symName: __ZNSt3__16vectorIP4MeshNS_9allocatorIS2_EEED2B7v160006Ev, symObjAddr: 0x3590, symBinAddr: 0x10002DF20, symSize: 0x40 }
  - { offsetInCU: 0x9FB9, offset: 0x41B98, size: 0x8, addend: 0x0, symName: __ZNSt3__16vectorIP4MeshNS_9allocatorIS2_EEE16__destroy_vectorC1ERS5_, symObjAddr: 0x35D0, symBinAddr: 0x10002DF60, symSize: 0x30 }
  - { offsetInCU: 0x9FF2, offset: 0x41BD1, size: 0x8, addend: 0x0, symName: __ZNSt3__16vectorIP4MeshNS_9allocatorIS2_EEE16__destroy_vectorclB7v160006Ev, symObjAddr: 0x3600, symBinAddr: 0x10002DF90, symSize: 0x90 }
  - { offsetInCU: 0xA018, offset: 0x41BF7, size: 0x8, addend: 0x0, symName: __ZNSt3__16vectorIP4MeshNS_9allocatorIS2_EEE16__destroy_vectorC2ERS5_, symObjAddr: 0x3690, symBinAddr: 0x10002E020, symSize: 0x20 }
  - { offsetInCU: 0xA051, offset: 0x41C30, size: 0x8, addend: 0x0, symName: __ZNKSt3__16vectorIP4MeshNS_9allocatorIS2_EEE17__annotate_deleteB7v160006Ev, symObjAddr: 0x36B0, symBinAddr: 0x10002E040, symSize: 0xB0 }
  - { offsetInCU: 0xA077, offset: 0x41C56, size: 0x8, addend: 0x0, symName: __ZNSt3__16vectorIP4MeshNS_9allocatorIS2_EEE7__clearB7v160006Ev, symObjAddr: 0x3770, symBinAddr: 0x10002E100, symSize: 0x20 }
  - { offsetInCU: 0xA09D, offset: 0x41C7C, size: 0x8, addend: 0x0, symName: __ZNSt3__116allocator_traitsINS_9allocatorIP4MeshEEE10deallocateB7v160006ERS4_PS3_m, symObjAddr: 0x3790, symBinAddr: 0x10002E120, symSize: 0x30 }
  - { offsetInCU: 0xA0DF, offset: 0x41CBE, size: 0x8, addend: 0x0, symName: __ZNSt3__16vectorIP4MeshNS_9allocatorIS2_EEE7__allocB7v160006Ev, symObjAddr: 0x37C0, symBinAddr: 0x10002E150, symSize: 0x20 }
  - { offsetInCU: 0xA105, offset: 0x41CE4, size: 0x8, addend: 0x0, symName: __ZNKSt3__16vectorIP4MeshNS_9allocatorIS2_EEE8capacityB7v160006Ev, symObjAddr: 0x37E0, symBinAddr: 0x10002E170, symSize: 0x30 }
  - { offsetInCU: 0xA12B, offset: 0x41D0A, size: 0x8, addend: 0x0, symName: __ZNKSt3__16vectorIP4MeshNS_9allocatorIS2_EEE31__annotate_contiguous_containerB7v160006EPKvS7_S7_S7_, symObjAddr: 0x3810, symBinAddr: 0x10002E1A0, symSize: 0x20 }
  - { offsetInCU: 0xA17D, offset: 0x41D5C, size: 0x8, addend: 0x0, symName: __ZNKSt3__16vectorIP4MeshNS_9allocatorIS2_EEE4dataB7v160006Ev, symObjAddr: 0x3830, symBinAddr: 0x10002E1C0, symSize: 0x20 }
  - { offsetInCU: 0xA1A3, offset: 0x41D82, size: 0x8, addend: 0x0, symName: __ZNKSt3__16vectorIP4MeshNS_9allocatorIS2_EEE4sizeB7v160006Ev, symObjAddr: 0x3850, symBinAddr: 0x10002E1E0, symSize: 0x20 }
  - { offsetInCU: 0xA1C9, offset: 0x41DA8, size: 0x8, addend: 0x0, symName: __ZNSt3__16vectorIP4MeshNS_9allocatorIS2_EEE22__base_destruct_at_endB7v160006EPS2_, symObjAddr: 0x3880, symBinAddr: 0x10002E210, symSize: 0x80 }
  - { offsetInCU: 0xA20D, offset: 0x41DEC, size: 0x8, addend: 0x0, symName: __ZNSt3__116allocator_traitsINS_9allocatorIP4MeshEEE7destroyB7v160006IS3_vEEvRS4_PT_, symObjAddr: 0x3900, symBinAddr: 0x10002E290, symSize: 0x30 }
  - { offsetInCU: 0xA24A, offset: 0x41E29, size: 0x8, addend: 0x0, symName: __ZNSt3__19allocatorIP4MeshE7destroyB7v160006EPS2_, symObjAddr: 0x3930, symBinAddr: 0x10002E2C0, symSize: 0x10 }
  - { offsetInCU: 0xA27E, offset: 0x41E5D, size: 0x8, addend: 0x0, symName: __ZNSt3__19allocatorIP4MeshE10deallocateB7v160006EPS2_m, symObjAddr: 0x3940, symBinAddr: 0x10002E2D0, symSize: 0x40 }
  - { offsetInCU: 0xA2C0, offset: 0x41E9F, size: 0x8, addend: 0x0, symName: __ZNSt3__117__compressed_pairIPP4MeshNS_9allocatorIS2_EEE6secondB7v160006Ev, symObjAddr: 0x3AA0, symBinAddr: 0x10002E310, symSize: 0x20 }
  - { offsetInCU: 0xA2E6, offset: 0x41EC5, size: 0x8, addend: 0x0, symName: __ZNSt3__122__compressed_pair_elemINS_9allocatorIP4MeshEELi1ELb1EE5__getB7v160006Ev, symObjAddr: 0x3AC0, symBinAddr: 0x10002E330, symSize: 0x10 }
  - { offsetInCU: 0xA30C, offset: 0x41EEB, size: 0x8, addend: 0x0, symName: __ZNKSt3__16vectorIP4MeshNS_9allocatorIS2_EEE9__end_capB7v160006Ev, symObjAddr: 0x3AD0, symBinAddr: 0x10002E340, symSize: 0x20 }
  - { offsetInCU: 0xA332, offset: 0x41F11, size: 0x8, addend: 0x0, symName: __ZNKSt3__117__compressed_pairIPP4MeshNS_9allocatorIS2_EEE5firstB7v160006Ev, symObjAddr: 0x3AF0, symBinAddr: 0x10002E360, symSize: 0x20 }
  - { offsetInCU: 0xA358, offset: 0x41F37, size: 0x8, addend: 0x0, symName: __ZNKSt3__122__compressed_pair_elemIPP4MeshLi0ELb0EE5__getB7v160006Ev, symObjAddr: 0x3B10, symBinAddr: 0x10002E380, symSize: 0x10 }
  - { offsetInCU: 0xA37E, offset: 0x41F5D, size: 0x8, addend: 0x0, symName: __ZNSt3__16vectorI6ShaderNS_9allocatorIS1_EEEC2B7v160006Ev, symObjAddr: 0x3B20, symBinAddr: 0x10002E390, symSize: 0x60 }
  - { offsetInCU: 0xA3A8, offset: 0x41F87, size: 0x8, addend: 0x0, symName: __ZNSt3__117__compressed_pairIP6ShaderNS_9allocatorIS1_EEEC1B7v160006IDnNS_18__default_init_tagEEEOT_OT0_, symObjAddr: 0x3B80, symBinAddr: 0x10002E3F0, symSize: 0x30 }
  - { offsetInCU: 0xA400, offset: 0x41FDF, size: 0x8, addend: 0x0, symName: __ZNSt3__117__compressed_pairIP6ShaderNS_9allocatorIS1_EEEC2B7v160006IDnNS_18__default_init_tagEEEOT_OT0_, symObjAddr: 0x3BC0, symBinAddr: 0x10002E430, symSize: 0x40 }
  - { offsetInCU: 0xA458, offset: 0x42037, size: 0x8, addend: 0x0, symName: __ZNSt3__122__compressed_pair_elemIP6ShaderLi0ELb0EEC2B7v160006IDnvEEOT_, symObjAddr: 0x3C00, symBinAddr: 0x10002E470, symSize: 0x20 }
  - { offsetInCU: 0xA49A, offset: 0x42079, size: 0x8, addend: 0x0, symName: __ZNSt3__122__compressed_pair_elemINS_9allocatorI6ShaderEELi1ELb1EEC2B7v160006ENS_18__default_init_tagE, symObjAddr: 0x3C20, symBinAddr: 0x10002E490, symSize: 0x20 }
  - { offsetInCU: 0xA4CF, offset: 0x420AE, size: 0x8, addend: 0x0, symName: __ZNSt3__19allocatorI6ShaderEC2B7v160006Ev, symObjAddr: 0x3C40, symBinAddr: 0x10002E4B0, symSize: 0x20 }
  - { offsetInCU: 0xA4F9, offset: 0x420D8, size: 0x8, addend: 0x0, symName: __ZNSt3__116__non_trivial_ifILb1ENS_9allocatorI6ShaderEEEC2B7v160006Ev, symObjAddr: 0x3C60, symBinAddr: 0x10002E4D0, symSize: 0x10 }
  - { offsetInCU: 0xA523, offset: 0x42102, size: 0x8, addend: 0x0, symName: __ZNSt3__16vectorI6ShaderNS_9allocatorIS1_EEED2B7v160006Ev, symObjAddr: 0x3C70, symBinAddr: 0x10002E4E0, symSize: 0x40 }
  - { offsetInCU: 0xA54D, offset: 0x4212C, size: 0x8, addend: 0x0, symName: __ZNSt3__16vectorI6ShaderNS_9allocatorIS1_EEE16__destroy_vectorC1ERS4_, symObjAddr: 0x3CB0, symBinAddr: 0x10002E520, symSize: 0x30 }
  - { offsetInCU: 0xA586, offset: 0x42165, size: 0x8, addend: 0x0, symName: __ZNSt3__16vectorI6ShaderNS_9allocatorIS1_EEE16__destroy_vectorclB7v160006Ev, symObjAddr: 0x3CE0, symBinAddr: 0x10002E550, symSize: 0x90 }
  - { offsetInCU: 0xA5AC, offset: 0x4218B, size: 0x8, addend: 0x0, symName: __ZNSt3__16vectorI6ShaderNS_9allocatorIS1_EEE16__destroy_vectorC2ERS4_, symObjAddr: 0x3D70, symBinAddr: 0x10002E5E0, symSize: 0x20 }
  - { offsetInCU: 0xA5E5, offset: 0x421C4, size: 0x8, addend: 0x0, symName: __ZNKSt3__16vectorI6ShaderNS_9allocatorIS1_EEE17__annotate_deleteB7v160006Ev, symObjAddr: 0x3D90, symBinAddr: 0x10002E600, symSize: 0xB0 }
  - { offsetInCU: 0xA60B, offset: 0x421EA, size: 0x8, addend: 0x0, symName: __ZNSt3__16vectorI6ShaderNS_9allocatorIS1_EEE7__clearB7v160006Ev, symObjAddr: 0x3E50, symBinAddr: 0x10002E6C0, symSize: 0x20 }
  - { offsetInCU: 0xA631, offset: 0x42210, size: 0x8, addend: 0x0, symName: __ZNSt3__116allocator_traitsINS_9allocatorI6ShaderEEE10deallocateB7v160006ERS3_PS2_m, symObjAddr: 0x3E70, symBinAddr: 0x10002E6E0, symSize: 0x30 }
  - { offsetInCU: 0xA673, offset: 0x42252, size: 0x8, addend: 0x0, symName: __ZNSt3__16vectorI6ShaderNS_9allocatorIS1_EEE7__allocB7v160006Ev, symObjAddr: 0x3EA0, symBinAddr: 0x10002E710, symSize: 0x20 }
  - { offsetInCU: 0xA699, offset: 0x42278, size: 0x8, addend: 0x0, symName: __ZNKSt3__16vectorI6ShaderNS_9allocatorIS1_EEE8capacityB7v160006Ev, symObjAddr: 0x3EC0, symBinAddr: 0x10002E730, symSize: 0x30 }
  - { offsetInCU: 0xA6BF, offset: 0x4229E, size: 0x8, addend: 0x0, symName: __ZNKSt3__16vectorI6ShaderNS_9allocatorIS1_EEE31__annotate_contiguous_containerB7v160006EPKvS6_S6_S6_, symObjAddr: 0x3EF0, symBinAddr: 0x10002E760, symSize: 0x20 }
  - { offsetInCU: 0xA711, offset: 0x422F0, size: 0x8, addend: 0x0, symName: __ZNKSt3__16vectorI6ShaderNS_9allocatorIS1_EEE4dataB7v160006Ev, symObjAddr: 0x3F10, symBinAddr: 0x10002E780, symSize: 0x20 }
  - { offsetInCU: 0xA737, offset: 0x42316, size: 0x8, addend: 0x0, symName: __ZNKSt3__16vectorI6ShaderNS_9allocatorIS1_EEE4sizeB7v160006Ev, symObjAddr: 0x3F30, symBinAddr: 0x10002E7A0, symSize: 0x20 }
  - { offsetInCU: 0xA75D, offset: 0x4233C, size: 0x8, addend: 0x0, symName: __ZNSt3__16vectorI6ShaderNS_9allocatorIS1_EEE22__base_destruct_at_endB7v160006EPS1_, symObjAddr: 0x3F60, symBinAddr: 0x10002E7D0, symSize: 0x80 }
  - { offsetInCU: 0xA7A1, offset: 0x42380, size: 0x8, addend: 0x0, symName: __ZNSt3__116allocator_traitsINS_9allocatorI6ShaderEEE7destroyB7v160006IS2_vEEvRS3_PT_, symObjAddr: 0x3FE0, symBinAddr: 0x10002E850, symSize: 0x30 }
  - { offsetInCU: 0xA7DE, offset: 0x423BD, size: 0x8, addend: 0x0, symName: __ZNSt3__19allocatorI6ShaderE7destroyB7v160006EPS1_, symObjAddr: 0x4010, symBinAddr: 0x10002E880, symSize: 0x20 }
  - { offsetInCU: 0xA812, offset: 0x423F1, size: 0x8, addend: 0x0, symName: __ZNSt3__19allocatorI6ShaderE10deallocateB7v160006EPS1_m, symObjAddr: 0x4030, symBinAddr: 0x10002E8A0, symSize: 0x40 }
  - { offsetInCU: 0xA854, offset: 0x42433, size: 0x8, addend: 0x0, symName: __ZNSt3__117__compressed_pairIP6ShaderNS_9allocatorIS1_EEE6secondB7v160006Ev, symObjAddr: 0x4070, symBinAddr: 0x10002E8E0, symSize: 0x20 }
  - { offsetInCU: 0xA87A, offset: 0x42459, size: 0x8, addend: 0x0, symName: __ZNSt3__122__compressed_pair_elemINS_9allocatorI6ShaderEELi1ELb1EE5__getB7v160006Ev, symObjAddr: 0x4090, symBinAddr: 0x10002E900, symSize: 0x10 }
  - { offsetInCU: 0xA8A0, offset: 0x4247F, size: 0x8, addend: 0x0, symName: __ZNKSt3__16vectorI6ShaderNS_9allocatorIS1_EEE9__end_capB7v160006Ev, symObjAddr: 0x40A0, symBinAddr: 0x10002E910, symSize: 0x20 }
  - { offsetInCU: 0xA8C6, offset: 0x424A5, size: 0x8, addend: 0x0, symName: __ZNKSt3__117__compressed_pairIP6ShaderNS_9allocatorIS1_EEE5firstB7v160006Ev, symObjAddr: 0x40C0, symBinAddr: 0x10002E930, symSize: 0x20 }
  - { offsetInCU: 0xA8EC, offset: 0x424CB, size: 0x8, addend: 0x0, symName: __ZNKSt3__122__compressed_pair_elemIP6ShaderLi0ELb0EE5__getB7v160006Ev, symObjAddr: 0x40E0, symBinAddr: 0x10002E950, symSize: 0x10 }
  - { offsetInCU: 0xA912, offset: 0x424F1, size: 0x8, addend: 0x0, symName: __ZNSt3__16vectorIP4MeshNS_9allocatorIS2_EEE9__end_capB7v160006Ev, symObjAddr: 0x40F0, symBinAddr: 0x10002E960, symSize: 0x20 }
  - { offsetInCU: 0xA938, offset: 0x42517, size: 0x8, addend: 0x0, symName: __ZNSt3__16vectorIP4MeshNS_9allocatorIS2_EEE22__construct_one_at_endB7v160006IJRKS2_EEEvDpOT_, symObjAddr: 0x4110, symBinAddr: 0x10002E980, symSize: 0x90 }
  - { offsetInCU: 0xA987, offset: 0x42566, size: 0x8, addend: 0x0, symName: __ZNSt3__16vectorIP4MeshNS_9allocatorIS2_EEE21__push_back_slow_pathIRKS2_EEvOT_, symObjAddr: 0x41A0, symBinAddr: 0x10002EA10, symSize: 0xD0 }
  - { offsetInCU: 0xA9E5, offset: 0x425C4, size: 0x8, addend: 0x0, symName: __ZNSt3__117__compressed_pairIPP4MeshNS_9allocatorIS2_EEE5firstB7v160006Ev, symObjAddr: 0x4270, symBinAddr: 0x10002EAE0, symSize: 0x20 }
  - { offsetInCU: 0xAA0B, offset: 0x425EA, size: 0x8, addend: 0x0, symName: __ZNSt3__122__compressed_pair_elemIPP4MeshLi0ELb0EE5__getB7v160006Ev, symObjAddr: 0x4290, symBinAddr: 0x10002EB00, symSize: 0x10 }
  - { offsetInCU: 0xAA4A, offset: 0x42629, size: 0x8, addend: 0x0, symName: __ZNSt3__16vectorIP4MeshNS_9allocatorIS2_EEE21_ConstructTransactionC1B7v160006ERS5_m, symObjAddr: 0x42A0, symBinAddr: 0x10002EB10, symSize: 0x30 }
  - { offsetInCU: 0xAA92, offset: 0x42671, size: 0x8, addend: 0x0, symName: __ZNSt3__116allocator_traitsINS_9allocatorIP4MeshEEE9constructB7v160006IS3_JRKS3_EvEEvRS4_PT_DpOT0_, symObjAddr: 0x42D0, symBinAddr: 0x10002EB40, symSize: 0x30 }
  - { offsetInCU: 0xAAE9, offset: 0x426C8, size: 0x8, addend: 0x0, symName: __ZNSt3__16vectorIP4MeshNS_9allocatorIS2_EEE21_ConstructTransactionD1B7v160006Ev, symObjAddr: 0x4300, symBinAddr: 0x10002EB70, symSize: 0x20 }
  - { offsetInCU: 0xAB13, offset: 0x426F2, size: 0x8, addend: 0x0, symName: __ZNSt3__16vectorIP4MeshNS_9allocatorIS2_EEE21_ConstructTransactionC2B7v160006ERS5_m, symObjAddr: 0x4320, symBinAddr: 0x10002EB90, symSize: 0x40 }
  - { offsetInCU: 0xAB5B, offset: 0x4273A, size: 0x8, addend: 0x0, symName: __ZNSt3__19allocatorIP4MeshE9constructB7v160006IS2_JRKS2_EEEvPT_DpOT0_, symObjAddr: 0x4360, symBinAddr: 0x10002EBD0, symSize: 0x20 }
  - { offsetInCU: 0xABB1, offset: 0x42790, size: 0x8, addend: 0x0, symName: __ZNSt3__16vectorIP4MeshNS_9allocatorIS2_EEE21_ConstructTransactionD2B7v160006Ev, symObjAddr: 0x4380, symBinAddr: 0x10002EBF0, symSize: 0x20 }
  - { offsetInCU: 0xABDB, offset: 0x427BA, size: 0x8, addend: 0x0, symName: __ZNKSt3__16vectorIP4MeshNS_9allocatorIS2_EEE11__recommendB7v160006Em, symObjAddr: 0x43A0, symBinAddr: 0x10002EC10, symSize: 0xA0 }
  - { offsetInCU: 0xAC30, offset: 0x4280F, size: 0x8, addend: 0x0, symName: __ZNSt3__114__split_bufferIP4MeshRNS_9allocatorIS2_EEEC1EmmS5_, symObjAddr: 0x4440, symBinAddr: 0x10002ECB0, symSize: 0x40 }
  - { offsetInCU: 0xAC86, offset: 0x42865, size: 0x8, addend: 0x0, symName: __ZNSt3__114__split_bufferIP4MeshRNS_9allocatorIS2_EEED1Ev, symObjAddr: 0x45B0, symBinAddr: 0x10002EE20, symSize: 0x20 }
  - { offsetInCU: 0xACB2, offset: 0x42891, size: 0x8, addend: 0x0, symName: __ZNKSt3__16vectorIP4MeshNS_9allocatorIS2_EEE8max_sizeEv, symObjAddr: 0x45D0, symBinAddr: 0x10002EE40, symSize: 0x60 }
  - { offsetInCU: 0xACDA, offset: 0x428B9, size: 0x8, addend: 0x0, symName: __ZNKSt3__16vectorIP4MeshNS_9allocatorIS2_EEE20__throw_length_errorB7v160006Ev, symObjAddr: 0x4630, symBinAddr: 0x10002EEA0, symSize: 0x20 }
  - { offsetInCU: 0xAD0A, offset: 0x428E9, size: 0x8, addend: 0x0, symName: __ZNSt3__116allocator_traitsINS_9allocatorIP4MeshEEE8max_sizeB7v160006IS4_vEEmRKS4_, symObjAddr: 0x46B0, symBinAddr: 0x10002EEC0, symSize: 0x20 }
  - { offsetInCU: 0xAD38, offset: 0x42917, size: 0x8, addend: 0x0, symName: __ZNKSt3__16vectorIP4MeshNS_9allocatorIS2_EEE7__allocB7v160006Ev, symObjAddr: 0x46D0, symBinAddr: 0x10002EEE0, symSize: 0x20 }
  - { offsetInCU: 0xAD5E, offset: 0x4293D, size: 0x8, addend: 0x0, symName: __ZNKSt3__19allocatorIP4MeshE8max_sizeB7v160006Ev, symObjAddr: 0x4780, symBinAddr: 0x10002EF00, symSize: 0x20 }
  - { offsetInCU: 0xAD84, offset: 0x42963, size: 0x8, addend: 0x0, symName: __ZNKSt3__117__compressed_pairIPP4MeshNS_9allocatorIS2_EEE6secondB7v160006Ev, symObjAddr: 0x47A0, symBinAddr: 0x10002EF20, symSize: 0x20 }
  - { offsetInCU: 0xADAA, offset: 0x42989, size: 0x8, addend: 0x0, symName: __ZNKSt3__122__compressed_pair_elemINS_9allocatorIP4MeshEELi1ELb1EE5__getB7v160006Ev, symObjAddr: 0x47C0, symBinAddr: 0x10002EF40, symSize: 0x10 }
  - { offsetInCU: 0xADD0, offset: 0x429AF, size: 0x8, addend: 0x0, symName: __ZNSt3__114__split_bufferIP4MeshRNS_9allocatorIS2_EEEC2EmmS5_, symObjAddr: 0x4910, symBinAddr: 0x10002EF50, symSize: 0xD0 }
  - { offsetInCU: 0xAE43, offset: 0x42A22, size: 0x8, addend: 0x0, symName: __ZNSt3__117__compressed_pairIPP4MeshRNS_9allocatorIS2_EEEC1B7v160006IDnS6_EEOT_OT0_, symObjAddr: 0x49E0, symBinAddr: 0x10002F020, symSize: 0x30 }
  - { offsetInCU: 0xAE9B, offset: 0x42A7A, size: 0x8, addend: 0x0, symName: __ZNSt3__114__split_bufferIP4MeshRNS_9allocatorIS2_EEE7__allocB7v160006Ev, symObjAddr: 0x4A50, symBinAddr: 0x10002F090, symSize: 0x20 }
  - { offsetInCU: 0xAEC1, offset: 0x42AA0, size: 0x8, addend: 0x0, symName: __ZNSt3__114__split_bufferIP4MeshRNS_9allocatorIS2_EEE9__end_capB7v160006Ev, symObjAddr: 0x4A70, symBinAddr: 0x10002F0B0, symSize: 0x20 }
  - { offsetInCU: 0xAEE7, offset: 0x42AC6, size: 0x8, addend: 0x0, symName: __ZNSt3__117__compressed_pairIPP4MeshRNS_9allocatorIS2_EEEC2B7v160006IDnS6_EEOT_OT0_, symObjAddr: 0x4A90, symBinAddr: 0x10002F0D0, symSize: 0x40 }
  - { offsetInCU: 0xAF3F, offset: 0x42B1E, size: 0x8, addend: 0x0, symName: __ZNSt3__122__compressed_pair_elemIRNS_9allocatorIP4MeshEELi1ELb0EEC2B7v160006IS5_vEEOT_, symObjAddr: 0x4AD0, symBinAddr: 0x10002F110, symSize: 0x20 }
  - { offsetInCU: 0xAF81, offset: 0x42B60, size: 0x8, addend: 0x0, symName: __ZNSt3__19allocatorIP4MeshE8allocateB7v160006Em, symObjAddr: 0x4AF0, symBinAddr: 0x10002F130, symSize: 0x50 }
  - { offsetInCU: 0xAFB5, offset: 0x42B94, size: 0x8, addend: 0x0, symName: __ZNSt3__117__compressed_pairIPP4MeshRNS_9allocatorIS2_EEE6secondB7v160006Ev, symObjAddr: 0x4C30, symBinAddr: 0x10002F180, symSize: 0x20 }
  - { offsetInCU: 0xAFDB, offset: 0x42BBA, size: 0x8, addend: 0x0, symName: __ZNSt3__122__compressed_pair_elemIRNS_9allocatorIP4MeshEELi1ELb0EE5__getB7v160006Ev, symObjAddr: 0x4C50, symBinAddr: 0x10002F1A0, symSize: 0x20 }
  - { offsetInCU: 0xB001, offset: 0x42BE0, size: 0x8, addend: 0x0, symName: __ZNSt3__117__compressed_pairIPP4MeshRNS_9allocatorIS2_EEE5firstB7v160006Ev, symObjAddr: 0x4C70, symBinAddr: 0x10002F1C0, symSize: 0x20 }
  - { offsetInCU: 0xB027, offset: 0x42C06, size: 0x8, addend: 0x0, symName: __ZNSt3__116reverse_iteratorIPP4MeshEC1B7v160006ES3_, symObjAddr: 0x4D00, symBinAddr: 0x10002F250, symSize: 0x30 }
  - { offsetInCU: 0xB05F, offset: 0x42C3E, size: 0x8, addend: 0x0, symName: __ZNKSt3__116reverse_iteratorIPP4MeshE4baseB7v160006Ev, symObjAddr: 0x4D30, symBinAddr: 0x10002F280, symSize: 0x20 }
  - { offsetInCU: 0xB085, offset: 0x42C64, size: 0x8, addend: 0x0, symName: __ZNKSt3__16vectorIP4MeshNS_9allocatorIS2_EEE14__annotate_newB7v160006Em, symObjAddr: 0x4D90, symBinAddr: 0x10002F2E0, symSize: 0xB0 }
  - { offsetInCU: 0xB0DD, offset: 0x42CBC, size: 0x8, addend: 0x0, symName: __ZNKSt3__111__move_loopINS_17_ClassicAlgPolicyEEclB7v160006INS_16reverse_iteratorIPP4MeshEES8_S8_EENS_4pairIT_T1_EESA_T0_SB_, symObjAddr: 0x5290, symBinAddr: 0x10002F7E0, symSize: 0xA0 }
  - { offsetInCU: 0xB14D, offset: 0x42D2C, size: 0x8, addend: 0x0, symName: __ZNSt3__18_IterOpsINS_17_ClassicAlgPolicyEE11__iter_moveB7v160006IRNS_16reverse_iteratorIPP4MeshEEEENS_9enable_ifIXsr12is_referenceIDTdeclsr3stdE7declvalIRT_EEEEE5valueEDTclsr3stdE4movedeclsr3stdE7declvalISC_EEEEE4typeEOSB_, symObjAddr: 0x54B0, symBinAddr: 0x10002FA00, symSize: 0x20 }
  - { offsetInCU: 0xB179, offset: 0x42D58, size: 0x8, addend: 0x0, symName: __ZNKSt3__116reverse_iteratorIPP4MeshEdeB7v160006Ev, symObjAddr: 0x54D0, symBinAddr: 0x10002FA20, symSize: 0x30 }
  - { offsetInCU: 0xB1AD, offset: 0x42D8C, size: 0x8, addend: 0x0, symName: __ZNSt3__116reverse_iteratorIPP4MeshEppB7v160006Ev, symObjAddr: 0x5500, symBinAddr: 0x10002FA50, symSize: 0x20 }
  - { offsetInCU: 0xB1D3, offset: 0x42DB2, size: 0x8, addend: 0x0, symName: __ZNSt3__18_IterOpsINS_17_ClassicAlgPolicyEE25__validate_iter_referenceB7v160006IRNS_16reverse_iteratorIPP4MeshEEEEvv, symObjAddr: 0x5520, symBinAddr: 0x10002FA70, symSize: 0x10 }
  - { offsetInCU: 0xB1F1, offset: 0x42DD0, size: 0x8, addend: 0x0, symName: __ZNSt3__118__unwrap_iter_implINS_16reverse_iteratorIPP4MeshEELb0EE8__unwrapB7v160006ES5_, symObjAddr: 0x5530, symBinAddr: 0x10002FA80, symSize: 0x20 }
  - { offsetInCU: 0xB219, offset: 0x42DF8, size: 0x8, addend: 0x0, symName: __ZNSt3__14pairINS_16reverse_iteratorIPP4MeshEES5_EC1B7v160006IS5_S5_LPv0EEEOT_OT0_, symObjAddr: 0x5550, symBinAddr: 0x10002FAA0, symSize: 0x30 }
  - { offsetInCU: 0xB277, offset: 0x42E56, size: 0x8, addend: 0x0, symName: __ZNSt3__14pairINS_16reverse_iteratorIPP4MeshEES5_EC2B7v160006IS5_S5_LPv0EEEOT_OT0_, symObjAddr: 0x5580, symBinAddr: 0x10002FAD0, symSize: 0x40 }
  - { offsetInCU: 0xB2D5, offset: 0x42EB4, size: 0x8, addend: 0x0, symName: __ZNSt3__118__unwrap_iter_implINS_16reverse_iteratorIPP4MeshEELb0EE8__rewrapB7v160006ES5_S5_, symObjAddr: 0x55C0, symBinAddr: 0x10002FB10, symSize: 0x30 }
  - { offsetInCU: 0xB303, offset: 0x42EE2, size: 0x8, addend: 0x0, symName: __ZNSt3__116reverse_iteratorIPP4MeshEC2B7v160006ES3_, symObjAddr: 0x55F0, symBinAddr: 0x10002FB40, symSize: 0x30 }
  - { offsetInCU: 0xB33B, offset: 0x42F1A, size: 0x8, addend: 0x0, symName: __ZNSt3__114__split_bufferIP4MeshRNS_9allocatorIS2_EEED2Ev, symObjAddr: 0x5620, symBinAddr: 0x10002FB70, symSize: 0x70 }
  - { offsetInCU: 0xB367, offset: 0x42F46, size: 0x8, addend: 0x0, symName: __ZNSt3__114__split_bufferIP4MeshRNS_9allocatorIS2_EEE5clearB7v160006Ev, symObjAddr: 0x5690, symBinAddr: 0x10002FBE0, symSize: 0x20 }
  - { offsetInCU: 0xB38D, offset: 0x42F6C, size: 0x8, addend: 0x0, symName: __ZNKSt3__114__split_bufferIP4MeshRNS_9allocatorIS2_EEE8capacityB7v160006Ev, symObjAddr: 0x56B0, symBinAddr: 0x10002FC00, symSize: 0x30 }
  - { offsetInCU: 0xB3B3, offset: 0x42F92, size: 0x8, addend: 0x0, symName: __ZNSt3__114__split_bufferIP4MeshRNS_9allocatorIS2_EEE17__destruct_at_endB7v160006EPS2_, symObjAddr: 0x56E0, symBinAddr: 0x10002FC30, symSize: 0x30 }
  - { offsetInCU: 0xB3E7, offset: 0x42FC6, size: 0x8, addend: 0x0, symName: __ZNSt3__114__split_bufferIP4MeshRNS_9allocatorIS2_EEE17__destruct_at_endB7v160006EPS2_NS_17integral_constantIbLb0EEE, symObjAddr: 0x5710, symBinAddr: 0x10002FC60, symSize: 0x80 }
  - { offsetInCU: 0xB428, offset: 0x43007, size: 0x8, addend: 0x0, symName: __ZNKSt3__114__split_bufferIP4MeshRNS_9allocatorIS2_EEE9__end_capB7v160006Ev, symObjAddr: 0x5790, symBinAddr: 0x10002FCE0, symSize: 0x20 }
  - { offsetInCU: 0xB44E, offset: 0x4302D, size: 0x8, addend: 0x0, symName: __ZNKSt3__117__compressed_pairIPP4MeshRNS_9allocatorIS2_EEE5firstB7v160006Ev, symObjAddr: 0x57B0, symBinAddr: 0x10002FD00, symSize: 0x20 }
  - { offsetInCU: 0xB474, offset: 0x43053, size: 0x8, addend: 0x0, symName: __ZNSt3__16vectorI6ShaderNS_9allocatorIS1_EEE9__end_capB7v160006Ev, symObjAddr: 0x6280, symBinAddr: 0x10002FD20, symSize: 0x20 }
  - { offsetInCU: 0xB49A, offset: 0x43079, size: 0x8, addend: 0x0, symName: __ZNSt3__16vectorI6ShaderNS_9allocatorIS1_EEE22__construct_one_at_endB7v160006IJRKS1_EEEvDpOT_, symObjAddr: 0x62A0, symBinAddr: 0x10002FD40, symSize: 0x90 }
  - { offsetInCU: 0xB4E9, offset: 0x430C8, size: 0x8, addend: 0x0, symName: __ZNSt3__16vectorI6ShaderNS_9allocatorIS1_EEE21__push_back_slow_pathIRKS1_EEvOT_, symObjAddr: 0x6330, symBinAddr: 0x10002FDD0, symSize: 0xD0 }
  - { offsetInCU: 0xB547, offset: 0x43126, size: 0x8, addend: 0x0, symName: __ZNSt3__117__compressed_pairIP6ShaderNS_9allocatorIS1_EEE5firstB7v160006Ev, symObjAddr: 0x6400, symBinAddr: 0x10002FEA0, symSize: 0x20 }
  - { offsetInCU: 0xB56D, offset: 0x4314C, size: 0x8, addend: 0x0, symName: __ZNSt3__122__compressed_pair_elemIP6ShaderLi0ELb0EE5__getB7v160006Ev, symObjAddr: 0x6420, symBinAddr: 0x10002FEC0, symSize: 0x10 }
  - { offsetInCU: 0xB5AC, offset: 0x4318B, size: 0x8, addend: 0x0, symName: __ZNSt3__16vectorI6ShaderNS_9allocatorIS1_EEE21_ConstructTransactionC1B7v160006ERS4_m, symObjAddr: 0x6430, symBinAddr: 0x10002FED0, symSize: 0x30 }
  - { offsetInCU: 0xB5F4, offset: 0x431D3, size: 0x8, addend: 0x0, symName: __ZNSt3__116allocator_traitsINS_9allocatorI6ShaderEEE9constructB7v160006IS2_JRKS2_EvEEvRS3_PT_DpOT0_, symObjAddr: 0x6460, symBinAddr: 0x10002FF00, symSize: 0x30 }
  - { offsetInCU: 0xB64B, offset: 0x4322A, size: 0x8, addend: 0x0, symName: __ZNSt3__16vectorI6ShaderNS_9allocatorIS1_EEE21_ConstructTransactionD1B7v160006Ev, symObjAddr: 0x6490, symBinAddr: 0x10002FF30, symSize: 0x20 }
  - { offsetInCU: 0xB675, offset: 0x43254, size: 0x8, addend: 0x0, symName: __ZNSt3__16vectorI6ShaderNS_9allocatorIS1_EEE21_ConstructTransactionC2B7v160006ERS4_m, symObjAddr: 0x64B0, symBinAddr: 0x10002FF50, symSize: 0x40 }
  - { offsetInCU: 0xB6BD, offset: 0x4329C, size: 0x8, addend: 0x0, symName: __ZNSt3__19allocatorI6ShaderE9constructB7v160006IS1_JRKS1_EEEvPT_DpOT0_, symObjAddr: 0x64F0, symBinAddr: 0x10002FF90, symSize: 0x20 }
  - { offsetInCU: 0xB713, offset: 0x432F2, size: 0x8, addend: 0x0, symName: __ZNSt3__16vectorI6ShaderNS_9allocatorIS1_EEE21_ConstructTransactionD2B7v160006Ev, symObjAddr: 0x6510, symBinAddr: 0x10002FFB0, symSize: 0x20 }
  - { offsetInCU: 0xB73D, offset: 0x4331C, size: 0x8, addend: 0x0, symName: __ZNKSt3__16vectorI6ShaderNS_9allocatorIS1_EEE11__recommendB7v160006Em, symObjAddr: 0x6530, symBinAddr: 0x10002FFD0, symSize: 0xA0 }
  - { offsetInCU: 0xB792, offset: 0x43371, size: 0x8, addend: 0x0, symName: __ZNSt3__114__split_bufferI6ShaderRNS_9allocatorIS1_EEEC1EmmS4_, symObjAddr: 0x65D0, symBinAddr: 0x100030070, symSize: 0x40 }
  - { offsetInCU: 0xB7E8, offset: 0x433C7, size: 0x8, addend: 0x0, symName: __ZNSt3__114__split_bufferI6ShaderRNS_9allocatorIS1_EEED1Ev, symObjAddr: 0x6740, symBinAddr: 0x1000301E0, symSize: 0x20 }
  - { offsetInCU: 0xB814, offset: 0x433F3, size: 0x8, addend: 0x0, symName: __ZNKSt3__16vectorI6ShaderNS_9allocatorIS1_EEE8max_sizeEv, symObjAddr: 0x6760, symBinAddr: 0x100030200, symSize: 0x60 }
  - { offsetInCU: 0xB83C, offset: 0x4341B, size: 0x8, addend: 0x0, symName: __ZNKSt3__16vectorI6ShaderNS_9allocatorIS1_EEE20__throw_length_errorB7v160006Ev, symObjAddr: 0x67C0, symBinAddr: 0x100030260, symSize: 0x20 }
  - { offsetInCU: 0xB86C, offset: 0x4344B, size: 0x8, addend: 0x0, symName: __ZNSt3__116allocator_traitsINS_9allocatorI6ShaderEEE8max_sizeB7v160006IS3_vEEmRKS3_, symObjAddr: 0x67E0, symBinAddr: 0x100030280, symSize: 0x20 }
  - { offsetInCU: 0xB89A, offset: 0x43479, size: 0x8, addend: 0x0, symName: __ZNKSt3__16vectorI6ShaderNS_9allocatorIS1_EEE7__allocB7v160006Ev, symObjAddr: 0x6800, symBinAddr: 0x1000302A0, symSize: 0x20 }
  - { offsetInCU: 0xB8C0, offset: 0x4349F, size: 0x8, addend: 0x0, symName: __ZNKSt3__19allocatorI6ShaderE8max_sizeB7v160006Ev, symObjAddr: 0x6820, symBinAddr: 0x1000302C0, symSize: 0x20 }
  - { offsetInCU: 0xB8E6, offset: 0x434C5, size: 0x8, addend: 0x0, symName: __ZNKSt3__117__compressed_pairIP6ShaderNS_9allocatorIS1_EEE6secondB7v160006Ev, symObjAddr: 0x6840, symBinAddr: 0x1000302E0, symSize: 0x20 }
  - { offsetInCU: 0xB90C, offset: 0x434EB, size: 0x8, addend: 0x0, symName: __ZNKSt3__122__compressed_pair_elemINS_9allocatorI6ShaderEELi1ELb1EE5__getB7v160006Ev, symObjAddr: 0x6860, symBinAddr: 0x100030300, symSize: 0x10 }
  - { offsetInCU: 0xB932, offset: 0x43511, size: 0x8, addend: 0x0, symName: __ZNSt3__114__split_bufferI6ShaderRNS_9allocatorIS1_EEEC2EmmS4_, symObjAddr: 0x6870, symBinAddr: 0x100030310, symSize: 0xD0 }
  - { offsetInCU: 0xB9A5, offset: 0x43584, size: 0x8, addend: 0x0, symName: __ZNSt3__117__compressed_pairIP6ShaderRNS_9allocatorIS1_EEEC1B7v160006IDnS5_EEOT_OT0_, symObjAddr: 0x6940, symBinAddr: 0x1000303E0, symSize: 0x30 }
  - { offsetInCU: 0xB9FD, offset: 0x435DC, size: 0x8, addend: 0x0, symName: __ZNSt3__114__split_bufferI6ShaderRNS_9allocatorIS1_EEE7__allocB7v160006Ev, symObjAddr: 0x69B0, symBinAddr: 0x100030450, symSize: 0x20 }
  - { offsetInCU: 0xBA23, offset: 0x43602, size: 0x8, addend: 0x0, symName: __ZNSt3__114__split_bufferI6ShaderRNS_9allocatorIS1_EEE9__end_capB7v160006Ev, symObjAddr: 0x69D0, symBinAddr: 0x100030470, symSize: 0x20 }
  - { offsetInCU: 0xBA49, offset: 0x43628, size: 0x8, addend: 0x0, symName: __ZNSt3__117__compressed_pairIP6ShaderRNS_9allocatorIS1_EEEC2B7v160006IDnS5_EEOT_OT0_, symObjAddr: 0x69F0, symBinAddr: 0x100030490, symSize: 0x40 }
  - { offsetInCU: 0xBAA1, offset: 0x43680, size: 0x8, addend: 0x0, symName: __ZNSt3__122__compressed_pair_elemIRNS_9allocatorI6ShaderEELi1ELb0EEC2B7v160006IS4_vEEOT_, symObjAddr: 0x6A30, symBinAddr: 0x1000304D0, symSize: 0x20 }
  - { offsetInCU: 0xBAE3, offset: 0x436C2, size: 0x8, addend: 0x0, symName: __ZNSt3__19allocatorI6ShaderE8allocateB7v160006Em, symObjAddr: 0x6A50, symBinAddr: 0x1000304F0, symSize: 0x50 }
  - { offsetInCU: 0xBB17, offset: 0x436F6, size: 0x8, addend: 0x0, symName: __ZNSt3__117__compressed_pairIP6ShaderRNS_9allocatorIS1_EEE6secondB7v160006Ev, symObjAddr: 0x6AA0, symBinAddr: 0x100030540, symSize: 0x20 }
  - { offsetInCU: 0xBB3D, offset: 0x4371C, size: 0x8, addend: 0x0, symName: __ZNSt3__122__compressed_pair_elemIRNS_9allocatorI6ShaderEELi1ELb0EE5__getB7v160006Ev, symObjAddr: 0x6AC0, symBinAddr: 0x100030560, symSize: 0x20 }
  - { offsetInCU: 0xBB63, offset: 0x43742, size: 0x8, addend: 0x0, symName: __ZNSt3__117__compressed_pairIP6ShaderRNS_9allocatorIS1_EEE5firstB7v160006Ev, symObjAddr: 0x6AE0, symBinAddr: 0x100030580, symSize: 0x20 }
  - { offsetInCU: 0xBB89, offset: 0x43768, size: 0x8, addend: 0x0, symName: __ZNSt3__116reverse_iteratorIP6ShaderEC1B7v160006ES2_, symObjAddr: 0x6C80, symBinAddr: 0x100030720, symSize: 0x30 }
  - { offsetInCU: 0xBBC1, offset: 0x437A0, size: 0x8, addend: 0x0, symName: __ZNKSt3__116reverse_iteratorIP6ShaderE4baseB7v160006Ev, symObjAddr: 0x6CB0, symBinAddr: 0x100030750, symSize: 0x20 }
  - { offsetInCU: 0xBBE7, offset: 0x437C6, size: 0x8, addend: 0x0, symName: __ZNKSt3__16vectorI6ShaderNS_9allocatorIS1_EEE14__annotate_newB7v160006Em, symObjAddr: 0x6D10, symBinAddr: 0x1000307B0, symSize: 0xB0 }
  - { offsetInCU: 0xBC1C, offset: 0x437FB, size: 0x8, addend: 0x0, symName: __ZNSt3__129_AllocatorDestroyRangeReverseINS_9allocatorI6ShaderEENS_16reverse_iteratorIPS2_EEEC1B7v160006ERS3_RS6_S9_, symObjAddr: 0x6E30, symBinAddr: 0x1000308D0, symSize: 0x40 }
  - { offsetInCU: 0xBC78, offset: 0x43857, size: 0x8, addend: 0x0, symName: __ZNSt3__116allocator_traitsINS_9allocatorI6ShaderEEE9constructB7v160006IS2_JS2_EvEEvRS3_PT_DpOT0_, symObjAddr: 0x6EB0, symBinAddr: 0x100030950, symSize: 0x30 }
  - { offsetInCU: 0xBCCF, offset: 0x438AE, size: 0x8, addend: 0x0, symName: __ZNKSt3__116reverse_iteratorIP6ShaderEdeB7v160006Ev, symObjAddr: 0x6F00, symBinAddr: 0x1000309A0, symSize: 0x30 }
  - { offsetInCU: 0xBD03, offset: 0x438E2, size: 0x8, addend: 0x0, symName: __ZNSt3__116reverse_iteratorIP6ShaderEppB7v160006Ev, symObjAddr: 0x6F30, symBinAddr: 0x1000309D0, symSize: 0x20 }
  - { offsetInCU: 0xBD29, offset: 0x43908, size: 0x8, addend: 0x0, symName: __ZNSt3__128__exception_guard_exceptionsINS_29_AllocatorDestroyRangeReverseINS_9allocatorI6ShaderEENS_16reverse_iteratorIPS3_EEEEE10__completeB7v160006Ev, symObjAddr: 0x6F50, symBinAddr: 0x1000309F0, symSize: 0x20 }
  - { offsetInCU: 0xBD4F, offset: 0x4392E, size: 0x8, addend: 0x0, symName: __ZNSt3__128__exception_guard_exceptionsINS_29_AllocatorDestroyRangeReverseINS_9allocatorI6ShaderEENS_16reverse_iteratorIPS3_EEEEED1B7v160006Ev, symObjAddr: 0x6F70, symBinAddr: 0x100030A10, symSize: 0x20 }
  - { offsetInCU: 0xBD79, offset: 0x43958, size: 0x8, addend: 0x0, symName: __ZNSt3__128__exception_guard_exceptionsINS_29_AllocatorDestroyRangeReverseINS_9allocatorI6ShaderEENS_16reverse_iteratorIPS3_EEEEEC1B7v160006ES8_, symObjAddr: 0x6F90, symBinAddr: 0x100030A30, symSize: 0x40 }
  - { offsetInCU: 0xBDB1, offset: 0x43990, size: 0x8, addend: 0x0, symName: __ZNSt3__128__exception_guard_exceptionsINS_29_AllocatorDestroyRangeReverseINS_9allocatorI6ShaderEENS_16reverse_iteratorIPS3_EEEEEC2B7v160006ES8_, symObjAddr: 0x6FD0, symBinAddr: 0x100030A70, symSize: 0x30 }
  - { offsetInCU: 0xBDE9, offset: 0x439C8, size: 0x8, addend: 0x0, symName: __ZNSt3__129_AllocatorDestroyRangeReverseINS_9allocatorI6ShaderEENS_16reverse_iteratorIPS2_EEEC2B7v160006ERS3_RS6_S9_, symObjAddr: 0x7000, symBinAddr: 0x100030AA0, symSize: 0x40 }
  - { offsetInCU: 0xBE40, offset: 0x43A1F, size: 0x8, addend: 0x0, symName: __ZNSt3__19allocatorI6ShaderE9constructB7v160006IS1_JS1_EEEvPT_DpOT0_, symObjAddr: 0x7040, symBinAddr: 0x100030AE0, symSize: 0x20 }
  - { offsetInCU: 0xBE9B, offset: 0x43A7A, size: 0x8, addend: 0x0, symName: __ZNSt3__119__to_address_helperINS_16reverse_iteratorIP6ShaderEEvE6__callB7v160006ERKS4_, symObjAddr: 0x7060, symBinAddr: 0x100030B00, symSize: 0x40 }
  - { offsetInCU: 0xBEBE, offset: 0x43A9D, size: 0x8, addend: 0x0, symName: __ZNKSt3__116reverse_iteratorIP6ShaderEptB7v160006Ev, symObjAddr: 0x70A0, symBinAddr: 0x100030B40, symSize: 0x20 }
  - { offsetInCU: 0xBEE4, offset: 0x43AC3, size: 0x8, addend: 0x0, symName: __ZNSt3__128__exception_guard_exceptionsINS_29_AllocatorDestroyRangeReverseINS_9allocatorI6ShaderEENS_16reverse_iteratorIPS3_EEEEED2B7v160006Ev, symObjAddr: 0x70C0, symBinAddr: 0x100030B60, symSize: 0x40 }
  - { offsetInCU: 0xBF0E, offset: 0x43AED, size: 0x8, addend: 0x0, symName: __ZNKSt3__129_AllocatorDestroyRangeReverseINS_9allocatorI6ShaderEENS_16reverse_iteratorIPS2_EEEclB7v160006Ev, symObjAddr: 0x7100, symBinAddr: 0x100030BA0, symSize: 0xF0 }
  - { offsetInCU: 0xBF35, offset: 0x43B14, size: 0x8, addend: 0x0, symName: __ZNSt3__116reverse_iteratorINS0_IP6ShaderEEEC1B7v160006ES3_, symObjAddr: 0x7260, symBinAddr: 0x100030D00, symSize: 0x30 }
  - { offsetInCU: 0xBF6D, offset: 0x43B4C, size: 0x8, addend: 0x0, symName: __ZNSt3__116reverse_iteratorINS0_IP6ShaderEEEppB7v160006Ev, symObjAddr: 0x7300, symBinAddr: 0x100030DA0, symSize: 0x30 }
  - { offsetInCU: 0xBF93, offset: 0x43B72, size: 0x8, addend: 0x0, symName: __ZNKSt3__116reverse_iteratorINS0_IP6ShaderEEE4baseB7v160006Ev, symObjAddr: 0x7330, symBinAddr: 0x100030DD0, symSize: 0x20 }
  - { offsetInCU: 0xBFBE, offset: 0x43B9D, size: 0x8, addend: 0x0, symName: __ZNSt3__119__to_address_helperINS_16reverse_iteratorINS1_IP6ShaderEEEEvE6__callB7v160006ERKS5_, symObjAddr: 0x7350, symBinAddr: 0x100030DF0, symSize: 0x40 }
  - { offsetInCU: 0xBFE1, offset: 0x43BC0, size: 0x8, addend: 0x0, symName: __ZNKSt3__116reverse_iteratorINS0_IP6ShaderEEEptB7v160006Ev, symObjAddr: 0x7390, symBinAddr: 0x100030E30, symSize: 0x20 }
  - { offsetInCU: 0xC007, offset: 0x43BE6, size: 0x8, addend: 0x0, symName: __ZNKSt3__116reverse_iteratorINS0_IP6ShaderEEEdeB7v160006Ev, symObjAddr: 0x73B0, symBinAddr: 0x100030E50, symSize: 0x40 }
  - { offsetInCU: 0xC03B, offset: 0x43C1A, size: 0x8, addend: 0x0, symName: __ZNSt3__116reverse_iteratorIP6ShaderEmmB7v160006Ev, symObjAddr: 0x73F0, symBinAddr: 0x100030E90, symSize: 0x20 }
  - { offsetInCU: 0xC061, offset: 0x43C40, size: 0x8, addend: 0x0, symName: __ZNSt3__116reverse_iteratorINS0_IP6ShaderEEEC2B7v160006ES3_, symObjAddr: 0x7410, symBinAddr: 0x100030EB0, symSize: 0x40 }
  - { offsetInCU: 0xC099, offset: 0x43C78, size: 0x8, addend: 0x0, symName: __ZNSt3__116reverse_iteratorIP6ShaderEC2B7v160006ES2_, symObjAddr: 0x7450, symBinAddr: 0x100030EF0, symSize: 0x30 }
  - { offsetInCU: 0xC0D1, offset: 0x43CB0, size: 0x8, addend: 0x0, symName: __ZNSt3__114__split_bufferI6ShaderRNS_9allocatorIS1_EEED2Ev, symObjAddr: 0x7480, symBinAddr: 0x100030F20, symSize: 0x70 }
  - { offsetInCU: 0xC0FD, offset: 0x43CDC, size: 0x8, addend: 0x0, symName: __ZNSt3__114__split_bufferI6ShaderRNS_9allocatorIS1_EEE5clearB7v160006Ev, symObjAddr: 0x74F0, symBinAddr: 0x100030F90, symSize: 0x20 }
  - { offsetInCU: 0xC123, offset: 0x43D02, size: 0x8, addend: 0x0, symName: __ZNKSt3__114__split_bufferI6ShaderRNS_9allocatorIS1_EEE8capacityB7v160006Ev, symObjAddr: 0x7510, symBinAddr: 0x100030FB0, symSize: 0x30 }
  - { offsetInCU: 0xC149, offset: 0x43D28, size: 0x8, addend: 0x0, symName: __ZNSt3__114__split_bufferI6ShaderRNS_9allocatorIS1_EEE17__destruct_at_endB7v160006EPS1_, symObjAddr: 0x7540, symBinAddr: 0x100030FE0, symSize: 0x30 }
  - { offsetInCU: 0xC17D, offset: 0x43D5C, size: 0x8, addend: 0x0, symName: __ZNSt3__114__split_bufferI6ShaderRNS_9allocatorIS1_EEE17__destruct_at_endB7v160006EPS1_NS_17integral_constantIbLb0EEE, symObjAddr: 0x7570, symBinAddr: 0x100031010, symSize: 0x80 }
  - { offsetInCU: 0xC1BE, offset: 0x43D9D, size: 0x8, addend: 0x0, symName: __ZNKSt3__114__split_bufferI6ShaderRNS_9allocatorIS1_EEE9__end_capB7v160006Ev, symObjAddr: 0x75F0, symBinAddr: 0x100031090, symSize: 0x20 }
  - { offsetInCU: 0xC1E4, offset: 0x43DC3, size: 0x8, addend: 0x0, symName: __ZNKSt3__117__compressed_pairIP6ShaderRNS_9allocatorIS1_EEE5firstB7v160006Ev, symObjAddr: 0x7610, symBinAddr: 0x1000310B0, symSize: 0x20 }
  - { offsetInCU: 0xC20A, offset: 0x43DE9, size: 0x8, addend: 0x0, symName: __ZN3glm6detail17compute_normalizeILi3EfLNS_9qualifierE0ELb0EE4callERKNS_3vecILi3EfLS2_0EEE, symObjAddr: 0x7630, symBinAddr: 0x1000310D0, symSize: 0x60 }
  - { offsetInCU: 0xC22C, offset: 0x43E0B, size: 0x8, addend: 0x0, symName: __Z4sqrtB7v160006f, symObjAddr: 0x76F0, symBinAddr: 0x100031190, symSize: 0x20 }
  - { offsetInCU: 0xC25B, offset: 0x43E3A, size: 0x8, addend: 0x0, symName: __ZN3glm6detail11compute_dotINS_3vecILi3EfLNS_9qualifierE0EEEfLb0EE4callERKS4_S7_, symObjAddr: 0x7710, symBinAddr: 0x1000311B0, symSize: 0x50 }
  - { offsetInCU: 0xC29A, offset: 0x43E79, size: 0x8, addend: 0x0, symName: __ZN3glm6detail13compute_crossIfLNS_9qualifierE0ELb0EE4callERKNS_3vecILi3EfLS2_0EEES7_, symObjAddr: 0x77D0, symBinAddr: 0x100031270, symSize: 0x90 }
  - { offsetInCU: 0xC2CB, offset: 0x43EAA, size: 0x8, addend: 0x0, symName: __ZNSt3__114numeric_limitsIfE7epsilonB7v160006Ev, symObjAddr: 0x7A80, symBinAddr: 0x100031520, symSize: 0x10 }
  - { offsetInCU: 0xC2DE, offset: 0x43EBD, size: 0x8, addend: 0x0, symName: __Z3tanB7v160006f, symObjAddr: 0x7A90, symBinAddr: 0x100031530, symSize: 0x20 }
  - { offsetInCU: 0xC30D, offset: 0x43EEC, size: 0x8, addend: 0x0, symName: __ZN3glm6detail11compute_absIfLb1EE4callEf, symObjAddr: 0x7AB0, symBinAddr: 0x100031550, symSize: 0x50 }
  - { offsetInCU: 0xC330, offset: 0x43F0F, size: 0x8, addend: 0x0, symName: __ZNSt3__123__libcpp_numeric_limitsIfLb1EE7epsilonB7v160006Ev, symObjAddr: 0x7B00, symBinAddr: 0x1000315A0, symSize: 0x10 }
  - { offsetInCU: 0xC344, offset: 0x43F23, size: 0x8, addend: 0x0, symName: __ZN3glm3matILi4ELi4EfLNS_9qualifierE0EE6lengthEv, symObjAddr: 0x7B10, symBinAddr: 0x1000315B0, symSize: 0x10 }
  - { offsetInCU: 0xC358, offset: 0x43F37, size: 0x8, addend: 0x0, symName: __ZNK3glm3matILi4ELi4EfLNS_9qualifierE0EEixEi, symObjAddr: 0x7B20, symBinAddr: 0x1000315C0, symSize: 0x80 }
  - { offsetInCU: 0xC38F, offset: 0x43F6E, size: 0x8, addend: 0x0, symName: __ZNK3glm3vecILi4EfLNS_9qualifierE0EEixEi, symObjAddr: 0x7C30, symBinAddr: 0x1000316D0, symSize: 0x100 }
  - { offsetInCU: 0xC3C6, offset: 0x43FA5, size: 0x8, addend: 0x0, symName: __ZN3glm3vecILi4EfLNS_9qualifierE0EEpLIfEERS2_RKNS0_ILi4ET_LS1_0EEE, symObjAddr: 0x7D30, symBinAddr: 0x1000317D0, symSize: 0x50 }
  - { offsetInCU: 0xC407, offset: 0x43FE6, size: 0x8, addend: 0x0, symName: __ZN3glm6detail16compute_vec4_addIfLNS_9qualifierE0ELb0EE4callERKNS_3vecILi4EfLS2_0EEES7_, symObjAddr: 0x7D80, symBinAddr: 0x100031820, symSize: 0x70 }
  - { offsetInCU: 0xC438, offset: 0x44017, size: 0x8, addend: 0x0, symName: __ZN3glm3vecILi4EfLNS_9qualifierE0EEmLIfEERS2_T_, symObjAddr: 0x7DF0, symBinAddr: 0x100031890, symSize: 0x60 }
  - { offsetInCU: 0xC479, offset: 0x44058, size: 0x8, addend: 0x0, symName: __ZN3glm6detail16compute_vec4_mulIfLNS_9qualifierE0ELb0EE4callERKNS_3vecILi4EfLS2_0EEES7_, symObjAddr: 0x7E50, symBinAddr: 0x1000318F0, symSize: 0x70 }
  - { offsetInCU: 0xC4AA, offset: 0x44089, size: 0x8, addend: 0x0, symName: __ZN3glm3vecILi4EfLNS_9qualifierE0EEC1Ef, symObjAddr: 0x7EC0, symBinAddr: 0x100031960, symSize: 0x30 }
  - { offsetInCU: 0xC4E4, offset: 0x440C3, size: 0x8, addend: 0x0, symName: __ZN3glm3vecILi4EfLNS_9qualifierE0EEC2Ef, symObjAddr: 0x7EF0, symBinAddr: 0x100031990, symSize: 0x40 }
  - { offsetInCU: 0xC51E, offset: 0x440FD, size: 0x8, addend: 0x0, symName: __ZNK3glm3vecILi3EfLNS_9qualifierE0EEixEi, symObjAddr: 0x7F30, symBinAddr: 0x1000319D0, symSize: 0xF0 }
  - { offsetInCU: 0xC554, offset: 0x44133, size: 0x8, addend: 0x0, symName: __ZN3glm3vecILi3EfLNS_9qualifierE0EE6lengthEv, symObjAddr: 0x8020, symBinAddr: 0x100031AC0, symSize: 0x10 }
  - { offsetInCU: 0xC568, offset: 0x44147, size: 0x8, addend: 0x0, symName: __ZN3glm3vecILi3EfLNS_9qualifierE0EEixEi, symObjAddr: 0x80A0, symBinAddr: 0x100031B40, symSize: 0xE2 }
...
